Archive member included to satisfy reference by file (symbol)

/usr/local/Cellar/arm-none-eabi-gcc/10.3-2021.10/gcc/bin/../lib/gcc/arm-none-eabi/10.3.1/libgcc.a(_thumb1_case_sqi.o)
                              obj/printf.o (__gnu_thumb1_case_sqi)
/usr/local/Cellar/arm-none-eabi-gcc/10.3-2021.10/gcc/bin/../lib/gcc/arm-none-eabi/10.3.1/libgcc.a(_thumb1_case_uqi.o)
                              obj/iso15693.o (__gnu_thumb1_case_uqi)
/usr/local/Cellar/arm-none-eabi-gcc/10.3-2021.10/gcc/bin/../lib/gcc/arm-none-eabi/10.3.1/libgcc.a(_thumb1_case_shi.o)
                              obj/iso15693.o (__gnu_thumb1_case_shi)
/usr/local/Cellar/arm-none-eabi-gcc/10.3-2021.10/gcc/bin/../lib/gcc/arm-none-eabi/10.3.1/libgcc.a(_thumb1_case_uhi.o)
                              obj/hitag2.o (__gnu_thumb1_case_uhi)
/usr/local/Cellar/arm-none-eabi-gcc/10.3-2021.10/gcc/bin/../lib/gcc/arm-none-eabi/10.3.1/libgcc.a(_thumb1_case_si.o)
                              obj/appmain.o (__gnu_thumb1_case_si)
/usr/local/Cellar/arm-none-eabi-gcc/10.3-2021.10/gcc/bin/../lib/gcc/arm-none-eabi/10.3.1/libgcc.a(_udivsi3.o)
                              obj/lfsampling.o (__aeabi_uidiv)
/usr/local/Cellar/arm-none-eabi-gcc/10.3-2021.10/gcc/bin/../lib/gcc/arm-none-eabi/10.3.1/libgcc.a(_divsi3.o)
                              obj/lfops.o (__aeabi_idiv)
/usr/local/Cellar/arm-none-eabi-gcc/10.3-2021.10/gcc/bin/../lib/gcc/arm-none-eabi/10.3.1/libgcc.a(_dvmd_tls.o)
                              /usr/local/Cellar/arm-none-eabi-gcc/10.3-2021.10/gcc/bin/../lib/gcc/arm-none-eabi/10.3.1/libgcc.a(_udivsi3.o) (__aeabi_idiv0)
/usr/local/Cellar/arm-none-eabi-gcc/10.3-2021.10/gcc/bin/../lib/gcc/arm-none-eabi/10.3.1/libgcc.a(_lshrdi3.o)
                              obj/hitag2_crypto.o (__aeabi_llsr)
/usr/local/Cellar/arm-none-eabi-gcc/10.3-2021.10/gcc/bin/../lib/gcc/arm-none-eabi/10.3.1/libgcc.a(_ashldi3.o)
                              obj/hitag2_crypto.o (__aeabi_llsl)
/usr/local/Cellar/arm-none-eabi-gcc/10.3-2021.10/gcc/bin/../lib/gcc/arm-none-eabi/10.3.1/libgcc.a(_arm_addsubdf3.o)
                              obj/i2c.o (__aeabi_ui2d)
/usr/local/Cellar/arm-none-eabi-gcc/10.3-2021.10/gcc/bin/../lib/gcc/arm-none-eabi/10.3.1/libgcc.a(_arm_muldivdf3.o)
                              obj/i2c.o (__aeabi_ddiv)
/usr/local/Cellar/arm-none-eabi-gcc/10.3-2021.10/gcc/bin/../lib/gcc/arm-none-eabi/10.3.1/libgcc.a(_arm_fixunsdfsi.o)
                              obj/i2c.o (__aeabi_d2uiz)
/usr/local/Cellar/arm-none-eabi-gcc/10.3-2021.10/gcc/bin/../lib/gcc/arm-none-eabi/10.3.1/libgcc.a(_ctzsi2.o)
                              obj/lz4.o (__ctzsi2)
/usr/local/Cellar/arm-none-eabi-gcc/10.3-2021.10/gcc/bin/../lib/gcc/arm-none-eabi/10.3.1/libgcc.a(_aeabi_ldivmod.o)
                              obj/appmain.o (__aeabi_ldivmod)
/usr/local/Cellar/arm-none-eabi-gcc/10.3-2021.10/gcc/bin/../lib/gcc/arm-none-eabi/10.3.1/libgcc.a(_aeabi_uldivmod.o)
                              obj/appmain.o (__aeabi_uldivmod)
/usr/local/Cellar/arm-none-eabi-gcc/10.3-2021.10/gcc/bin/../lib/gcc/arm-none-eabi/10.3.1/libgcc.a(_muldi3.o)
                              obj/lfops.o (__aeabi_lmul)
/usr/local/Cellar/arm-none-eabi-gcc/10.3-2021.10/gcc/bin/../lib/gcc/arm-none-eabi/10.3.1/libgcc.a(_paritysi2.o)
                              obj/lfdemod.o (__paritysi2)
/usr/local/Cellar/arm-none-eabi-gcc/10.3-2021.10/gcc/bin/../lib/gcc/arm-none-eabi/10.3.1/libgcc.a(_paritydi2.o)
                              obj/hitag2_crypto.o (__paritydi2)
/usr/local/Cellar/arm-none-eabi-gcc/10.3-2021.10/gcc/bin/../lib/gcc/arm-none-eabi/10.3.1/libgcc.a(_bswapsi2.o)
                              obj/hitagS.o (__bswapsi2)
/usr/local/Cellar/arm-none-eabi-gcc/10.3-2021.10/gcc/bin/../lib/gcc/arm-none-eabi/10.3.1/libgcc.a(_bswapdi2.o)
                              obj/generator.o (__bswapdi2)
/usr/local/Cellar/arm-none-eabi-gcc/10.3-2021.10/gcc/bin/../lib/gcc/arm-none-eabi/10.3.1/libgcc.a(_udivmoddi4.o)
                              /usr/local/Cellar/arm-none-eabi-gcc/10.3-2021.10/gcc/bin/../lib/gcc/arm-none-eabi/10.3.1/libgcc.a(_aeabi_ldivmod.o) (__udivmoddi4)
/usr/local/Cellar/arm-none-eabi-gcc/10.3-2021.10/gcc/bin/../lib/gcc/arm-none-eabi/10.3.1/libgcc.a(_clzdi2.o)
                              /usr/local/Cellar/arm-none-eabi-gcc/10.3-2021.10/gcc/bin/../lib/gcc/arm-none-eabi/10.3.1/libgcc.a(_udivmoddi4.o) (__clzdi2)
/usr/local/Cellar/arm-none-eabi-gcc/10.3-2021.10/gcc/bin/../lib/gcc/arm-none-eabi/10.3.1/libgcc.a(_clzsi2.o)
                              /usr/local/Cellar/arm-none-eabi-gcc/10.3-2021.10/gcc/bin/../lib/gcc/arm-none-eabi/10.3.1/libgcc.a(_clzdi2.o) (__clzsi2)

Discarded input sections

 .text          0x0000000000000000        0x0 obj/version_pm3.o
 .data          0x0000000000000000        0x0 obj/version_pm3.o
 .bss           0x0000000000000000        0x0 obj/version_pm3.o
 .version_information
                0x0000000000000000       0x61 obj/version_pm3.o
 .comment       0x0000000000000000       0x4a obj/version_pm3.o
 .ARM.attributes
                0x0000000000000000       0x2a obj/version_pm3.o
 .text          0x0000000000000000        0x0 obj/fpga_version_info.o
 .data          0x0000000000000000        0x0 obj/fpga_version_info.o
 .bss           0x0000000000000000        0x0 obj/fpga_version_info.o
 .text          0x0000000000000000        0x0 obj/start.o
 .data          0x0000000000000000        0x0 obj/start.o
 .bss           0x0000000000000000        0x0 obj/start.o
 .text          0x0000000000000000        0x0 obj/iso15693.o
 .data          0x0000000000000000        0x0 obj/iso15693.o
 .bss           0x0000000000000000        0x0 obj/iso15693.o
 .text          0x0000000000000000        0x0 obj/iso15693tools.o
 .data          0x0000000000000000        0x0 obj/iso15693tools.o
 .bss           0x0000000000000000        0x0 obj/iso15693tools.o
 .text          0x0000000000000000        0x0 obj/thinfilm.o
 .data          0x0000000000000000        0x0 obj/thinfilm.o
 .bss           0x0000000000000000        0x0 obj/thinfilm.o
 .text          0x0000000000000000        0x0 obj/lfops.o
 .data          0x0000000000000000        0x0 obj/lfops.o
 .bss           0x0000000000000000        0x0 obj/lfops.o
 .text.getT55xxConfig
                0x0000000000000000        0x8 obj/lfops.o
 .text          0x0000000000000000        0x0 obj/lfsampling.o
 .data          0x0000000000000000        0x0 obj/lfsampling.o
 .bss           0x0000000000000000        0x0 obj/lfsampling.o
 .rodata.doT55x7Acquisition.str1.1
                0x0000000000000000       0x20 obj/lfsampling.o
 .text.doT55x7Acquisition
                0x0000000000000000      0x14c obj/lfsampling.o
 .text          0x0000000000000000        0x0 obj/pcf7931.o
 .data          0x0000000000000000        0x0 obj/pcf7931.o
 .bss           0x0000000000000000        0x0 obj/pcf7931.o
 .text          0x0000000000000000        0x0 obj/lfdemod.o
 .data          0x0000000000000000        0x0 obj/lfdemod.o
 .bss           0x0000000000000000        0x0 obj/lfdemod.o
 .text.findST   0x0000000000000000       0xbe obj/lfdemod.o
 .text.getSignalProperties
                0x0000000000000000        0x8 obj/lfdemod.o
 .text.parityTest
                0x0000000000000000       0x1c obj/lfdemod.o
 .text.addParity
                0x0000000000000000       0x9a obj/lfdemod.o
 .text.bits_to_array
                0x0000000000000000       0x36 obj/lfdemod.o
 .text.bytebits_to_byteLSBF
                0x0000000000000000       0x18 obj/lfdemod.o
 .rodata.loadWaveCounters.str1.1
                0x0000000000000000       0x2a obj/lfdemod.o
 .text.loadWaveCounters
                0x0000000000000000       0xd4 obj/lfdemod.o
 .rodata.pskFindFirstPhaseShift.str1.1
                0x0000000000000000       0x28 obj/lfdemod.o
 .text.pskFindFirstPhaseShift
                0x0000000000000000       0xa4 obj/lfdemod.o
 .text.ManchesterEncode
                0x0000000000000000       0x40 obj/lfdemod.o
 .rodata.DetectStrongNRZClk.str1.1
                0x0000000000000000       0x30 obj/lfdemod.o
 .text.DetectStrongNRZClk
                0x0000000000000000       0xec obj/lfdemod.o
 .rodata.DetectNRZClock.str1.1
                0x0000000000000000       0xad obj/lfdemod.o
 .text.DetectNRZClock
                0x0000000000000000      0x2b8 obj/lfdemod.o
 .rodata.countFC.str1.1
                0x0000000000000000       0x38 obj/lfdemod.o
 .text.countFC  0x0000000000000000      0x188 obj/lfdemod.o
 .rodata.DetectPSKClock.str1.1
                0x0000000000000000       0xe5 obj/lfdemod.o
 .text.DetectPSKClock
                0x0000000000000000      0x280 obj/lfdemod.o
 .rodata.detectFSKClk.str1.1
                0x0000000000000000       0x9c obj/lfdemod.o
 .text.detectFSKClk
                0x0000000000000000      0x238 obj/lfdemod.o
 .rodata.DetectST.str1.1
                0x0000000000000000      0x1ee obj/lfdemod.o
 .text.DetectST
                0x0000000000000000      0x388 obj/lfdemod.o
 .text.BiphaseRawDecode
                0x0000000000000000       0xe4 obj/lfdemod.o
 .rodata.nrzRawDemod.str1.1
                0x0000000000000000       0x49 obj/lfdemod.o
 .text.nrzRawDemod
                0x0000000000000000      0x13c obj/lfdemod.o
 .text.psk1TOpsk2
                0x0000000000000000       0x2a obj/lfdemod.o
 .text.psk2TOpsk1
                0x0000000000000000       0x18 obj/lfdemod.o
 .rodata.pskRawDemod_ext.str1.1
                0x0000000000000000       0x64 obj/lfdemod.o
 .text.pskRawDemod_ext
                0x0000000000000000      0x1f4 obj/lfdemod.o
 .text.pskRawDemod
                0x0000000000000000       0x16 obj/lfdemod.o
 .text          0x0000000000000000        0x0 obj/lfadc.o
 .data          0x0000000000000000        0x0 obj/lfadc.o
 .bss           0x0000000000000000        0x0 obj/lfadc.o
 .text.lf_test_periods
                0x0000000000000000       0x24 obj/lfadc.o
 .text.get_adc_avg
                0x0000000000000000        0xc obj/lfadc.o
 .text.lf_detect_gap
                0x0000000000000000       0x10 obj/lfadc.o
 .text.lf_reset_counter
                0x0000000000000000       0x18 obj/lfadc.o
 .text.lf_detect_field_drop
                0x0000000000000000        0x4 obj/lfadc.o
 .text          0x0000000000000000        0x0 obj/lz4.o
 .data          0x0000000000000000        0x0 obj/lz4.o
 .bss           0x0000000000000000        0x0 obj/lz4.o
 .text.LZ4_renormDictT
                0x0000000000000000       0x4c obj/lz4.o
 .text.LZ4_versionNumber
                0x0000000000000000        0x8 obj/lz4.o
 .rodata.LZ4_versionString.str1.1
                0x0000000000000000        0x6 obj/lz4.o
 .text.LZ4_versionString
                0x0000000000000000        0x8 obj/lz4.o
 .text.LZ4_compressBound
                0x0000000000000000       0x20 obj/lz4.o
 .text.LZ4_sizeofState
                0x0000000000000000        0x6 obj/lz4.o
 .text.LZ4_compress_fast_extState_fastReset
                0x0000000000000000     0x1a14 obj/lz4.o
 .text.LZ4_initStream
                0x0000000000000000       0x28 obj/lz4.o
 .text.LZ4_compress_fast_extState
                0x0000000000000000     0x116c obj/lz4.o
 .text.LZ4_compress_fast
                0x0000000000000000       0x1e obj/lz4.o
 .text.LZ4_compress_default
                0x0000000000000000       0x10 obj/lz4.o
 .text.LZ4_compress_destSize
                0x0000000000000000      0x9d0 obj/lz4.o
 .text.LZ4_createStream
                0x0000000000000000       0x1e obj/lz4.o
 .text.LZ4_resetStream
                0x0000000000000000       0x12 obj/lz4.o
 .text.LZ4_resetStream_fast
                0x0000000000000000       0x48 obj/lz4.o
 .text.LZ4_freeStream
                0x0000000000000000       0x12 obj/lz4.o
 .text.LZ4_loadDict
                0x0000000000000000       0x7c obj/lz4.o
 .text.LZ4_attach_dictionary
                0x0000000000000000       0x22 obj/lz4.o
 .text.LZ4_compress_fast_continue
                0x0000000000000000     0x224c obj/lz4.o
 .text.LZ4_compress_forceExtDict
                0x0000000000000000      0xbe4 obj/lz4.o
 .text.LZ4_saveDict
                0x0000000000000000       0x36 obj/lz4.o
 .text.LZ4_decompress_safe_partial
                0x0000000000000000       0x2a obj/lz4.o
 .text.LZ4_decompress_fast
                0x0000000000000000       0x2c obj/lz4.o
 .text.LZ4_decompress_fast_withPrefix64k
                0x0000000000000000        0xc obj/lz4.o
 .text.LZ4_createStreamDecode
                0x0000000000000000       0x10 obj/lz4.o
 .text.LZ4_freeStreamDecode
                0x0000000000000000        0xc obj/lz4.o
 .text.LZ4_decoderRingBufferSize
                0x0000000000000000       0x20 obj/lz4.o
 .text.LZ4_decompress_fast_continue
                0x0000000000000000       0x98 obj/lz4.o
 .text.LZ4_decompress_safe_usingDict
                0x0000000000000000       0x50 obj/lz4.o
 .text.LZ4_decompress_fast_usingDict
                0x0000000000000000       0x36 obj/lz4.o
 .text.LZ4_compress_limitedOutput
                0x0000000000000000        0xc obj/lz4.o
 .text.LZ4_compress
                0x0000000000000000       0x20 obj/lz4.o
 .text.LZ4_compress_limitedOutput_withState
                0x0000000000000000       0x14 obj/lz4.o
 .text.LZ4_compress_withState
                0x0000000000000000       0x28 obj/lz4.o
 .text.LZ4_compress_limitedOutput_continue
                0x0000000000000000       0x14 obj/lz4.o
 .text.LZ4_compress_continue
                0x0000000000000000       0x28 obj/lz4.o
 .text.LZ4_uncompress
                0x0000000000000000        0xc obj/lz4.o
 .text.LZ4_uncompress_unknownOutputSize
                0x0000000000000000        0xc obj/lz4.o
 .text.LZ4_sizeofStreamState
                0x0000000000000000        0x6 obj/lz4.o
 .text.LZ4_resetStreamState
                0x0000000000000000        0xe obj/lz4.o
 .text.LZ4_create
                0x0000000000000000        0xc obj/lz4.o
 .text.LZ4_slideInputBuffer
                0x0000000000000000        0x6 obj/lz4.o
 .text          0x0000000000000000        0x0 obj/legicrf.o
 .data          0x0000000000000000        0x0 obj/legicrf.o
 .bss           0x0000000000000000        0x0 obj/legicrf.o
 .text.getLegicCardInfo
                0x0000000000000000        0x8 obj/legicrf.o
 .text.LegicRfReaderEx
                0x0000000000000000       0x90 obj/legicrf.o
 .text          0x0000000000000000        0x0 obj/legicrfsim.o
 .data          0x0000000000000000        0x0 obj/legicrfsim.o
 .bss           0x0000000000000000        0x0 obj/legicrfsim.o
 .text          0x0000000000000000        0x0 obj/legic_prng.o
 .data          0x0000000000000000        0x0 obj/legic_prng.o
 .bss           0x0000000000000000        0x0 obj/legic_prng.o
 .text.legic_prng_get_bits
                0x0000000000000000       0x26 obj/legic_prng.o
 .text          0x0000000000000000        0x0 obj/flashmem.o
 .data          0x0000000000000000        0x0 obj/flashmem.o
 .bss           0x0000000000000000        0x0 obj/flashmem.o
 .rodata.Flash_WriteData.str1.1
                0x0000000000000000       0x5c obj/flashmem.o
 .text.Flash_WriteData
                0x0000000000000000       0xc0 obj/flashmem.o
 .text          0x0000000000000000        0x0 obj/i2c.o
 .data          0x0000000000000000        0x0 obj/i2c.o
 .bss           0x0000000000000000        0x0 obj/i2c.o
 .text.GetATR   0x0000000000000000       0x16 obj/i2c.o
 .text          0x0000000000000000        0x0 obj/hitag2_crypto.o
 .data          0x0000000000000000        0x0 obj/hitag2_crypto.o
 .bss           0x0000000000000000        0x0 obj/hitag2_crypto.o
 .text.ht2_fnR  0x0000000000000000       0x72 obj/hitag2_crypto.o
 .text.ht2_rollback
                0x0000000000000000       0x5c obj/hitag2_crypto.o
 .text.ht2_fnf  0x0000000000000000      0x15c obj/hitag2_crypto.o
 .text.ht2_recoverkey
                0x0000000000000000       0x66 obj/hitag2_crypto.o
 .text.ht2_hitag2_init_ex
                0x0000000000000000      0x322 obj/hitag2_crypto.o
 .text.ht2_hitag2_nstep
                0x0000000000000000       0x7c obj/hitag2_crypto.o
 .text.ht2_try_state
                0x0000000000000000      0x468 obj/hitag2_crypto.o
 .text.ht2_hitag2_word
                0x0000000000000000       0x20 obj/hitag2_crypto.o
 .text.ht2_hitag2_cipher_reset
                0x0000000000000000      0x600 obj/hitag2_crypto.o
 .text.ht2_hitag2_cipher_authenticate
                0x0000000000000000       0x42 obj/hitag2_crypto.o
 .text          0x0000000000000000        0x0 obj/hitag2.o
 .data          0x0000000000000000        0x0 obj/hitag2.o
 .bss           0x0000000000000000        0x0 obj/hitag2.o
 .text.hitag_sniff
                0x0000000000000000       0x4c obj/hitag2.o
 .text          0x0000000000000000        0x0 obj/hitagS.o
 .data          0x0000000000000000        0x0 obj/hitagS.o
 .bss           0x0000000000000000        0x0 obj/hitagS.o
 .text          0x0000000000000000        0x0 obj/hitag2_crack.o
 .data          0x0000000000000000        0x0 obj/hitag2_crack.o
 .bss           0x0000000000000000        0x0 obj/hitag2_crack.o
 .text          0x0000000000000000        0x0 obj/em4x50.o
 .data          0x0000000000000000        0x0 obj/em4x50.o
 .bss           0x0000000000000000        0x0 obj/em4x50.o
 .text          0x0000000000000000        0x0 obj/bruteforce.o
 .data          0x0000000000000000        0x0 obj/bruteforce.o
 .bss           0x0000000000000000        0x0 obj/bruteforce.o
 .text.bf_get_key48
                0x0000000000000000        0xc obj/bruteforce.o
 .text          0x0000000000000000        0x0 obj/em4x70.o
 .data          0x0000000000000000        0x0 obj/em4x70.o
 .bss           0x0000000000000000        0x0 obj/em4x70.o
 .text          0x0000000000000000        0x0 obj/spiffs.o
 .data          0x0000000000000000        0x0 obj/spiffs.o
 .bss           0x0000000000000000        0x0 obj/spiffs.o
 .text.rdv40_spiffs_stat
                0x0000000000000000       0x32 obj/spiffs.o
 .text          0x0000000000000000        0x0 obj/spiffs_cache.o
 .data          0x0000000000000000        0x0 obj/spiffs_cache.o
 .bss           0x0000000000000000        0x0 obj/spiffs_cache.o
 .text          0x0000000000000000        0x0 obj/spiffs_check.o
 .data          0x0000000000000000        0x0 obj/spiffs_check.o
 .bss           0x0000000000000000        0x0 obj/spiffs_check.o
 .text          0x0000000000000000        0x0 obj/spiffs_gc.o
 .data          0x0000000000000000        0x0 obj/spiffs_gc.o
 .bss           0x0000000000000000        0x0 obj/spiffs_gc.o
 .text          0x0000000000000000        0x0 obj/spiffs_nucleus.o
 .data          0x0000000000000000        0x0 obj/spiffs_nucleus.o
 .bss           0x0000000000000000        0x0 obj/spiffs_nucleus.o
 .text.spiffs_populate_ix_map_v
                0x0000000000000000       0xdc obj/spiffs_nucleus.o
 .text.spiffs_populate_ix_map
                0x0000000000000000       0xb0 obj/spiffs_nucleus.o
 .text.spiffs_object_open_by_id
                0x0000000000000000       0x42 obj/spiffs_nucleus.o
 .text          0x0000000000000000        0x0 obj/spiffs_hydrogen.o
 .data          0x0000000000000000        0x0 obj/spiffs_hydrogen.o
 .bss           0x0000000000000000        0x0 obj/spiffs_hydrogen.o
 .text.SPIFFS_mounted
                0x0000000000000000        0xa obj/spiffs_hydrogen.o
 .text.SPIFFS_format
                0x0000000000000000       0x60 obj/spiffs_hydrogen.o
 .text.SPIFFS_creat
                0x0000000000000000       0x74 obj/spiffs_hydrogen.o
 .text.SPIFFS_open_by_dirent
                0x0000000000000000       0x90 obj/spiffs_hydrogen.o
 .text.SPIFFS_open_by_page
                0x0000000000000000       0xcc obj/spiffs_hydrogen.o
 .text.SPIFFS_lseek
                0x0000000000000000       0xd8 obj/spiffs_hydrogen.o
 .text.SPIFFS_fremove
                0x0000000000000000       0x64 obj/spiffs_hydrogen.o
 .text.SPIFFS_fstat
                0x0000000000000000       0x58 obj/spiffs_hydrogen.o
 .text.SPIFFS_fflush
                0x0000000000000000       0x3c obj/spiffs_hydrogen.o
 .text.SPIFFS_eof
                0x0000000000000000       0x5c obj/spiffs_hydrogen.o
 .text.SPIFFS_tell
                0x0000000000000000       0x50 obj/spiffs_hydrogen.o
 .text.SPIFFS_set_file_callback_func
                0x0000000000000000        0x6 obj/spiffs_hydrogen.o
 .text.SPIFFS_ix_map
                0x0000000000000000       0xa4 obj/spiffs_hydrogen.o
 .text.SPIFFS_ix_unmap
                0x0000000000000000       0x50 obj/spiffs_hydrogen.o
 .text.SPIFFS_ix_remap
                0x0000000000000000       0xf8 obj/spiffs_hydrogen.o
 .text.SPIFFS_bytes_to_ix_map_entries
                0x0000000000000000       0x2c obj/spiffs_hydrogen.o
 .text.SPIFFS_ix_map_entries_to_bytes
                0x0000000000000000       0x24 obj/spiffs_hydrogen.o
 .text          0x0000000000000000        0x0 obj/hfops.o
 .data          0x0000000000000000        0x0 obj/hfops.o
 .bss           0x0000000000000000        0x0 obj/hfops.o
 .text          0x0000000000000000        0x0 obj/iso14443a.o
 .data          0x0000000000000000        0x0 obj/iso14443a.o
 .bss           0x0000000000000000        0x0 obj/iso14443a.o
 .text.iso14a_set_trigger
                0x0000000000000000        0xc obj/iso14443a.o
 .text.Uart14aInit
                0x0000000000000000       0x18 obj/iso14443a.o
 .text.GetDemod14a
                0x0000000000000000        0x8 obj/iso14443a.o
 .text.Demod14aInit
                0x0000000000000000       0x18 obj/iso14443a.o
 .text          0x0000000000000000        0x0 obj/mifareutil.o
 .data          0x0000000000000000        0x0 obj/mifareutil.o
 .bss           0x0000000000000000        0x0 obj/mifareutil.o
 .text.mifare_classic_writeblock
                0x0000000000000000        0xe obj/mifareutil.o
 .rodata.mifare_sendcmd_special.str1.1
                0x0000000000000000       0x25 obj/mifareutil.o
 .text.mifare_sendcmd_special
                0x0000000000000000       0x6c obj/mifareutil.o
 .text.mifare_sendcmd_special2
                0x0000000000000000       0x84 obj/mifareutil.o
 .rodata.mifare_desfire_des_auth1.str1.1
                0x0000000000000000       0x39 obj/mifareutil.o
 .text.mifare_desfire_des_auth1
                0x0000000000000000       0xb8 obj/mifareutil.o
 .rodata.mifare_desfire_des_auth2.str1.1
                0x0000000000000000       0x4b obj/mifareutil.o
 .text.mifare_desfire_des_auth2
                0x0000000000000000       0xd4 obj/mifareutil.o
 .text          0x0000000000000000        0x0 obj/mifarecmd.o
 .data          0x0000000000000000        0x0 obj/mifarecmd.o
 .bss           0x0000000000000000        0x0 obj/mifarecmd.o
 .rodata.Mifare_DES_Auth1.str1.1
                0x0000000000000000       0x2c obj/mifarecmd.o
 .text.Mifare_DES_Auth1
                0x0000000000000000       0xb0 obj/mifarecmd.o
 .rodata.Mifare_DES_Auth2.str1.1
                0x0000000000000000       0x2d obj/mifarecmd.o
 .text.Mifare_DES_Auth2
                0x0000000000000000       0xa0 obj/mifarecmd.o
 .text          0x0000000000000000        0x0 obj/epa.o
 .data          0x0000000000000000        0x0 obj/epa.o
 .bss           0x0000000000000000        0x0 obj/epa.o
 .text          0x0000000000000000        0x0 obj/mifaresim.o
 .data          0x0000000000000000        0x0 obj/mifaresim.o
 .bss           0x0000000000000000        0x0 obj/mifaresim.o
 .text          0x0000000000000000        0x0 obj/sam_mfc.o
 .data          0x0000000000000000        0x0 obj/sam_mfc.o
 .bss           0x0000000000000000        0x0 obj/sam_mfc.o
 .comment       0x0000000000000000       0x4a obj/sam_mfc.o
 .ARM.attributes
                0x0000000000000000       0x2a obj/sam_mfc.o
 .text          0x0000000000000000        0x0 obj/sam_seos.o
 .data          0x0000000000000000        0x0 obj/sam_seos.o
 .bss           0x0000000000000000        0x0 obj/sam_seos.o
 .comment       0x0000000000000000       0x4a obj/sam_seos.o
 .ARM.attributes
                0x0000000000000000       0x2a obj/sam_seos.o
 .text          0x0000000000000000        0x0 obj/iso14443b.o
 .data          0x0000000000000000        0x0 obj/iso14443b.o
 .bss           0x0000000000000000        0x0 obj/iso14443b.o
 .text          0x0000000000000000        0x0 obj/crypto1.o
 .data          0x0000000000000000        0x0 obj/crypto1.o
 .bss           0x0000000000000000        0x0 obj/crypto1.o
 .text.crypto1_get_lfsr
                0x0000000000000000       0x60 obj/crypto1.o
 .text          0x0000000000000000        0x0 obj/des.o
 .data          0x0000000000000000        0x0 obj/des.o
 .bss           0x0000000000000000        0x0 obj/des.o
 .text.mbedtls_des_init
                0x0000000000000000       0x10 obj/des.o
 .text.mbedtls_des_free
                0x0000000000000000       0x12 obj/des.o
 .text.mbedtls_des3_init
                0x0000000000000000       0x12 obj/des.o
 .text.mbedtls_des3_free
                0x0000000000000000       0x14 obj/des.o
 .text.mbedtls_des_key_set_parity
                0x0000000000000000       0x1c obj/des.o
 .text.mbedtls_des_key_check_key_parity
                0x0000000000000000       0x28 obj/des.o
 .text.mbedtls_des_key_check_weak
                0x0000000000000000       0x30 obj/des.o
 .text.mbedtls_des_crypt_cbc
                0x0000000000000000       0xa2 obj/des.o
 .text.mbedtls_des3_crypt_cbc
                0x0000000000000000       0xa2 obj/des.o
 .rodata.mbedtls_des_self_test.str1.1
                0x0000000000000000       0x48 obj/des.o
 .text.mbedtls_des_self_test
                0x0000000000000000      0x28c obj/des.o
 .rodata.des3_test_buf
                0x0000000000000000        0x8 obj/des.o
 .rodata.des3_test_cbc_dec
                0x0000000000000000       0x18 obj/des.o
 .rodata.des3_test_cbc_enc
                0x0000000000000000       0x18 obj/des.o
 .rodata.des3_test_ecb_dec
                0x0000000000000000       0x18 obj/des.o
 .rodata.des3_test_ecb_enc
                0x0000000000000000       0x18 obj/des.o
 .rodata.des3_test_iv
                0x0000000000000000        0x8 obj/des.o
 .rodata.des3_test_keys
                0x0000000000000000       0x18 obj/des.o
 .rodata.odd_parity_table
                0x0000000000000000       0x80 obj/des.o
 .rodata.weak_key_table
                0x0000000000000000       0x80 obj/des.o
 .text          0x0000000000000000        0x0 obj/desfire_crypto.o
 .data          0x0000000000000000        0x0 obj/desfire_crypto.o
 .bss           0x0000000000000000        0x0 obj/desfire_crypto.o
 .text.xor      0x0000000000000000       0x1a obj/desfire_crypto.o
 .text.des_encrypt
                0x0000000000000000       0x24 obj/desfire_crypto.o
 .text.aes128_nxp_receive
                0x0000000000000000       0x40 obj/desfire_crypto.o
 .text.aes128_nxp_send
                0x0000000000000000       0x34 obj/desfire_crypto.o
 .text.Desfire_3des_key_new
                0x0000000000000000       0x46 obj/desfire_crypto.o
 .text.Desfire_key_get_version
                0x0000000000000000       0x26 obj/desfire_crypto.o
 .text.Desfire_key_set_version
                0x0000000000000000       0x42 obj/desfire_crypto.o
 .text.key_block_size
                0x0000000000000000       0x10 obj/desfire_crypto.o
 .text.padded_data_length
                0x0000000000000000       0x28 obj/desfire_crypto.o
 .text.maced_data_length
                0x0000000000000000       0x10 obj/desfire_crypto.o
 .text.enciphered_data_length
                0x0000000000000000       0x3c obj/desfire_crypto.o
 .text.mifare_cypher_single_block
                0x0000000000000000      0x130 obj/desfire_crypto.o
 .text.mifare_cypher_blocks_chained
                0x0000000000000000       0x72 obj/desfire_crypto.o
 .text.cmac_generate_subkeys
                0x0000000000000000       0xc6 obj/desfire_crypto.o
 .text.cmac     0x0000000000000000       0x92 obj/desfire_crypto.o
 .text.mifare_cryto_preprocess_data
                0x0000000000000000      0x1aa obj/desfire_crypto.o
 .rodata.mifare_cryto_postprocess_data.str1.1
                0x0000000000000000       0x1f obj/desfire_crypto.o
 .text.mifare_cryto_postprocess_data
                0x0000000000000000      0x2a8 obj/desfire_crypto.o
 .bss.actx      0x0000000000000000      0x118 obj/desfire_crypto.o
 .text          0x0000000000000000        0x0 obj/mifaredesfire.o
 .data          0x0000000000000000        0x0 obj/mifaredesfire.o
 .bss           0x0000000000000000        0x0 obj/mifaredesfire.o
 .text          0x0000000000000000        0x0 obj/aes.o
 .data          0x0000000000000000        0x0 obj/aes.o
 .bss           0x0000000000000000        0x0 obj/aes.o
 .text.mbedtls_gf128mul_x_ble
                0x0000000000000000       0xd6 obj/aes.o
 .text.mbedtls_aes_xts_init
                0x0000000000000000       0x18 obj/aes.o
 .text.mbedtls_aes_xts_free
                0x0000000000000000       0x1a obj/aes.o
 .text.mbedtls_aes_xts_setkey_enc
                0x0000000000000000       0x40 obj/aes.o
 .text.mbedtls_aes_xts_setkey_dec
                0x0000000000000000       0x40 obj/aes.o
 .text.mbedtls_aes_encrypt
                0x0000000000000000        0xc obj/aes.o
 .text.mbedtls_aes_decrypt
                0x0000000000000000        0xc obj/aes.o
 .text.mbedtls_aes_crypt_xts
                0x0000000000000000      0x120 obj/aes.o
 .text.mbedtls_aes_crypt_cfb128
                0x0000000000000000       0x84 obj/aes.o
 .text.mbedtls_aes_crypt_cfb8
                0x0000000000000000       0x62 obj/aes.o
 .text.mbedtls_aes_crypt_ofb
                0x0000000000000000       0x60 obj/aes.o
 .text.mbedtls_aes_crypt_ctr
                0x0000000000000000       0x76 obj/aes.o
 .rodata.mbedtls_aes_self_test.str1.1
                0x0000000000000000       0xa4 obj/aes.o
 .text.mbedtls_aes_self_test
                0x0000000000000000      0x5cc obj/aes.o
 .rodata.aes_test_cbc_dec
                0x0000000000000000       0x30 obj/aes.o
 .rodata.aes_test_cbc_enc
                0x0000000000000000       0x30 obj/aes.o
 .rodata.aes_test_cfb128_ct
                0x0000000000000000       0xc0 obj/aes.o
 .rodata.aes_test_cfb128_iv
                0x0000000000000000       0x10 obj/aes.o
 .rodata.aes_test_cfb128_key
                0x0000000000000000       0x60 obj/aes.o
 .rodata.aes_test_cfb128_pt
                0x0000000000000000       0x40 obj/aes.o
 .rodata.aes_test_ctr_ct
                0x0000000000000000       0x90 obj/aes.o
 .rodata.aes_test_ctr_key
                0x0000000000000000       0x30 obj/aes.o
 .rodata.aes_test_ctr_len
                0x0000000000000000        0xc obj/aes.o
 .rodata.aes_test_ctr_nonce_counter
                0x0000000000000000       0x30 obj/aes.o
 .rodata.aes_test_ctr_pt
                0x0000000000000000       0x90 obj/aes.o
 .rodata.aes_test_ecb_dec
                0x0000000000000000       0x30 obj/aes.o
 .rodata.aes_test_ecb_enc
                0x0000000000000000       0x30 obj/aes.o
 .rodata.aes_test_ofb_ct
                0x0000000000000000       0xc0 obj/aes.o
 .rodata.aes_test_ofb_iv
                0x0000000000000000       0x10 obj/aes.o
 .rodata.aes_test_ofb_key
                0x0000000000000000       0x60 obj/aes.o
 .rodata.aes_test_ofb_pt
                0x0000000000000000       0x40 obj/aes.o
 .rodata.aes_test_xts_ct32
                0x0000000000000000       0x60 obj/aes.o
 .rodata.aes_test_xts_data_unit
                0x0000000000000000       0x30 obj/aes.o
 .rodata.aes_test_xts_key
                0x0000000000000000       0x60 obj/aes.o
 .rodata.aes_test_xts_pt32
                0x0000000000000000       0x60 obj/aes.o
 .text          0x0000000000000000        0x0 obj/platform_util.o
 .data          0x0000000000000000        0x0 obj/platform_util.o
 .bss           0x0000000000000000        0x0 obj/platform_util.o
 .text          0x0000000000000000        0x0 obj/iclass.o
 .data          0x0000000000000000        0x0 obj/iclass.o
 .bss           0x0000000000000000        0x0 obj/iclass.o
 .text.iclass_read_block
                0x0000000000000000       0x6c obj/iclass.o
 .text          0x0000000000000000        0x0 obj/optimized_cipherutils.o
 .data          0x0000000000000000        0x0 obj/optimized_cipherutils.o
 .bss           0x0000000000000000        0x0 obj/optimized_cipherutils.o
 .text.headBit  0x0000000000000000       0x18 obj/optimized_cipherutils.o
 .text.x_num_to_bytes
                0x0000000000000000       0x18 obj/optimized_cipherutils.o
 .text          0x0000000000000000        0x0 obj/optimized_ikeys.o
 .data          0x0000000000000000        0x0 obj/optimized_ikeys.o
 .bss           0x0000000000000000        0x0 obj/optimized_ikeys.o
 .text          0x0000000000000000        0x0 obj/optimized_elite.o
 .data          0x0000000000000000        0x0 obj/optimized_elite.o
 .bss           0x0000000000000000        0x0 obj/optimized_elite.o
 .text.permutekey
                0x0000000000000000       0x6c obj/optimized_elite.o
 .text          0x0000000000000000        0x0 obj/optimized_cipher.o
 .data          0x0000000000000000        0x0 obj/optimized_cipher.o
 .bss           0x0000000000000000        0x0 obj/optimized_cipher.o
 .text.opt_doReaderMAC_2
                0x0000000000000000       0x26 obj/optimized_cipher.o
 .text.opt_doTagMAC
                0x0000000000000000       0x44 obj/optimized_cipher.o
 .text          0x0000000000000000        0x0 obj/sam_picopass.o
 .data          0x0000000000000000        0x0 obj/sam_picopass.o
 .bss           0x0000000000000000        0x0 obj/sam_picopass.o
 .text          0x0000000000000000        0x0 obj/crc.o
 .data          0x0000000000000000        0x0 obj/crc.o
 .bss           0x0000000000000000        0x0 obj/crc.o
 .text.CRC8Maxim
                0x0000000000000000       0x3e obj/crc.o
 .text.CRC8Mad  0x0000000000000000       0x3e obj/crc.o
 .text.CRC4Legic
                0x0000000000000000       0x4e obj/crc.o
 .text.CRC8Cardx
                0x0000000000000000       0x3e obj/crc.o
 .text.CRC8Hitag1
                0x0000000000000000       0x3e obj/crc.o
 .text          0x0000000000000000        0x0 obj/crc16.o
 .data          0x0000000000000000        0x0 obj/crc16.o
 .bss           0x0000000000000000        0x0 obj/crc16.o
 .text.Crc16    0x0000000000000000       0x74 obj/crc16.o
 .text.crc16_legic
                0x0000000000000000       0x16 obj/crc16.o
 .text          0x0000000000000000        0x0 obj/crc32.o
 .data          0x0000000000000000        0x0 obj/crc32.o
 .bss           0x0000000000000000        0x0 obj/crc32.o
 .text.crc32_ex
                0x0000000000000000       0x44 obj/crc32.o
 .text.crc32_append
                0x0000000000000000        0xe obj/crc32.o
 .comment       0x0000000000000000       0x4a obj/crc32.o
 .ARM.attributes
                0x0000000000000000       0x2a obj/crc32.o
 .text          0x0000000000000000        0x0 obj/felica.o
 .data          0x0000000000000000        0x0 obj/felica.o
 .bss           0x0000000000000000        0x0 obj/felica.o
 .text          0x0000000000000000        0x0 obj/lf_samyrun.o
 .data          0x0000000000000000        0x0 obj/lf_samyrun.o
 .bss           0x0000000000000000        0x0 obj/lf_samyrun.o
 .text          0x0000000000000000        0x0 obj/lfzx.o
 .data          0x0000000000000000        0x0 obj/lfzx.o
 .bss           0x0000000000000000        0x0 obj/lfzx.o
 .text          0x0000000000000000        0x0 obj/appmain.o
 .data          0x0000000000000000        0x0 obj/appmain.o
 .bss           0x0000000000000000        0x0 obj/appmain.o
 .custom_marker
                0x0000000000000000        0x8 obj/appmain.o
 .text          0x0000000000000000        0x0 obj/printf.o
 .data          0x0000000000000000        0x0 obj/printf.o
 .bss           0x0000000000000000        0x0 obj/printf.o
 .text.vsprintf
                0x0000000000000000       0x16 obj/printf.o
 .text          0x0000000000000000        0x0 obj/dbprint.o
 .data          0x0000000000000000        0x0 obj/dbprint.o
 .bss           0x0000000000000000        0x0 obj/dbprint.o
 .text.DbprintfEx
                0x0000000000000000       0x40 obj/dbprint.o
 .text          0x0000000000000000        0x0 obj/commonutil.o
 .data          0x0000000000000000        0x0 obj/commonutil.o
 .bss           0x0000000000000000        0x0 obj/commonutil.o
 .rodata.FormatVersionInformation.str1.1
                0x0000000000000000       0x7d obj/commonutil.o
 .text.FormatVersionInformation
                0x0000000000000000      0x110 obj/commonutil.o
 .text.format_version_information_short
                0x0000000000000000       0xa8 obj/commonutil.o
 .text.reflect48
                0x0000000000000000       0x1e obj/commonutil.o
 .text.reflect64
                0x0000000000000000       0x1c obj/commonutil.o
 .text.MemLeToUint2byte
                0x0000000000000000        0xe obj/commonutil.o
 .text.MemLeToUint3byte
                0x0000000000000000       0x12 obj/commonutil.o
 .text.MemLeToUint4byte
                0x0000000000000000       0x18 obj/commonutil.o
 .text.MemLeToUint5byte
                0x0000000000000000       0x34 obj/commonutil.o
 .text.MemLeToUint6byte
                0x0000000000000000       0x3e obj/commonutil.o
 .text.MemLeToUint7byte
                0x0000000000000000       0x4a obj/commonutil.o
 .text.MemLeToUint8byte
                0x0000000000000000       0x52 obj/commonutil.o
 .text.MemBeToUint2byte
                0x0000000000000000        0xe obj/commonutil.o
 .text.MemBeToUint3byte
                0x0000000000000000       0x12 obj/commonutil.o
 .text.MemBeToUint4byte
                0x0000000000000000       0x18 obj/commonutil.o
 .text.MemBeToUint5byte
                0x0000000000000000       0x34 obj/commonutil.o
 .text.MemBeToUint6byte
                0x0000000000000000       0x3e obj/commonutil.o
 .text.MemBeToUint7byte
                0x0000000000000000       0x4a obj/commonutil.o
 .text.MemBeToUint8byte
                0x0000000000000000       0x52 obj/commonutil.o
 .text.Uint2byteToMemLe
                0x0000000000000000        0x8 obj/commonutil.o
 .text.Uint3byteToMemLe
                0x0000000000000000        0xc obj/commonutil.o
 .text.Uint5byteToMemLe
                0x0000000000000000       0x12 obj/commonutil.o
 .text.Uint6byteToMemLe
                0x0000000000000000       0x16 obj/commonutil.o
 .text.Uint7byteToMemLe
                0x0000000000000000       0x1a obj/commonutil.o
 .text.Uint8byteToMemLe
                0x0000000000000000       0x1e obj/commonutil.o
 .text.Uint2byteToMemBe
                0x0000000000000000        0x8 obj/commonutil.o
 .text.Uint3byteToMemBe
                0x0000000000000000        0xc obj/commonutil.o
 .text.Uint5byteToMemBe
                0x0000000000000000       0x12 obj/commonutil.o
 .text.Uint6byteToMemBe
                0x0000000000000000       0x16 obj/commonutil.o
 .text.Uint7byteToMemBe
                0x0000000000000000       0x1a obj/commonutil.o
 .text.Uint8byteToMemBe
                0x0000000000000000       0x1e obj/commonutil.o
 .text.ror      0x0000000000000000       0x1c obj/commonutil.o
 .text.lsl      0x0000000000000000       0x2a obj/commonutil.o
 .text.rotl     0x0000000000000000        0xc obj/commonutil.o
 .text.rotr     0x0000000000000000        0x8 obj/commonutil.o
 .text.get_sw   0x0000000000000000       0x1e obj/commonutil.o
 .text.reverse_array
                0x0000000000000000       0x32 obj/commonutil.o
 .text.reverse_array_copy
                0x0000000000000000       0x26 obj/commonutil.o
 .text.reverse_arraybytes
                0x0000000000000000       0x40 obj/commonutil.o
 .text.char2int
                0x0000000000000000       0x2c obj/commonutil.o
 .text.hexstr2ByteArr
                0x0000000000000000       0x5c obj/commonutil.o
 .text          0x0000000000000000        0x0 obj/util.o
 .data          0x0000000000000000        0x0 obj/util.o
 .bss           0x0000000000000000        0x0 obj/util.o
 .text.hex2int  0x0000000000000000       0x18 obj/util.o
 .text.hex2binarray
                0x0000000000000000       0x1c obj/util.o
 .text.LED      0x0000000000000000       0xa4 obj/util.o
 .rodata.BUTTON_CLICKED.str1.1
                0x0000000000000000       0x35 obj/util.o
 .text.BUTTON_CLICKED
                0x0000000000000000       0xd4 obj/util.o
 .text.convertToHexArray
                0x0000000000000000       0x58 obj/util.o
 .rodata.CSWTCH.36
                0x0000000000000000       0x36 obj/util.o
 .text          0x0000000000000000        0x0 obj/string.o
 .data          0x0000000000000000        0x0 obj/string.o
 .bss           0x0000000000000000        0x0 obj/string.o
 .text.memxor   0x0000000000000000       0x1a obj/string.o
 .text.strcat   0x0000000000000000       0x22 obj/string.o
 .text.strreverse
                0x0000000000000000       0x24 obj/string.o
 .text.itoa     0x0000000000000000       0x5e obj/string.o
 .text.__strtok_r
                0x0000000000000000       0x5a obj/string.o
 .text.strtok   0x0000000000000000       0x14 obj/string.o
 .text.strchr   0x0000000000000000       0x16 obj/string.o
 .text.strspn   0x0000000000000000       0x24 obj/string.o
 .text.strrchr  0x0000000000000000       0x18 obj/string.o
 .text.strcspn  0x0000000000000000       0x24 obj/string.o
 .text.strpbrk  0x0000000000000000       0x26 obj/string.o
 .text.strncmp  0x0000000000000000       0x20 obj/string.o
 .text.strtoul  0x0000000000000000       0x96 obj/string.o
 .text.strtol   0x0000000000000000       0xb2 obj/string.o
 .text.c_tolower
                0x0000000000000000       0x14 obj/string.o
 .text.c_isprint
                0x0000000000000000       0x12 obj/string.o
 .bss.last.0    0x0000000000000000        0x4 obj/string.o
 .text          0x0000000000000000        0x0 obj/BigBuf.o
 .data          0x0000000000000000        0x0 obj/BigBuf.o
 .bss           0x0000000000000000        0x0 obj/BigBuf.o
 .text.BigBuf_get_hi
                0x0000000000000000        0xc obj/BigBuf.o
 .text          0x0000000000000000        0x0 obj/ticks.o
 .data          0x0000000000000000        0x0 obj/ticks.o
 .bss           0x0000000000000000        0x0 obj/ticks.o
 .text          0x0000000000000000        0x0 obj/clocks.o
 .data          0x0000000000000000        0x0 obj/clocks.o
 .bss           0x0000000000000000        0x0 obj/clocks.o
 .text          0x0000000000000000        0x0 obj/hfsnoop.o
 .data          0x0000000000000000        0x0 obj/hfsnoop.o
 .bss           0x0000000000000000        0x0 obj/hfsnoop.o
 .text          0x0000000000000000        0x0 obj/generator.o
 .data          0x0000000000000000        0x0 obj/generator.o
 .bss           0x0000000000000000        0x0 obj/generator.o
 .text.transform_D
                0x0000000000000000       0xb8 obj/generator.o
 .text.ul_ev1_pwdgenA
                0x0000000000000000       0x8c obj/generator.o
 .text.ul_ev1_pwdgenC
                0x0000000000000000       0x54 obj/generator.o
 .text.ul_ev1_pwdgenD
                0x0000000000000000       0x6c obj/generator.o
 .text.ul_ev1_pwdgenE
                0x0000000000000000       0x64 obj/generator.o
 .text.ul_ev1_pwdgenF
                0x0000000000000000       0x3c obj/generator.o
 .text.ul_ev1_pwdgenG
                0x0000000000000000       0x40 obj/generator.o
 .text.ul_ev1_packgenA
                0x0000000000000000       0x16 obj/generator.o
 .text.ul_ev1_packgenB
                0x0000000000000000        0x8 obj/generator.o
 .text.ul_ev1_packgenC
                0x0000000000000000        0x8 obj/generator.o
 .text.ul_ev1_packgenD
                0x0000000000000000       0x68 obj/generator.o
 .text.ul_ev1_packgenE
                0x0000000000000000       0x14 obj/generator.o
 .text.ul_ev1_packgenG
                0x0000000000000000       0x68 obj/generator.o
 .text.ul_ev1_pwdgen_def
                0x0000000000000000        0x6 obj/generator.o
 .text.ul_ev1_packgen_def
                0x0000000000000000        0x4 obj/generator.o
 .text.ul_c_otpgenA
                0x0000000000000000        0x8 obj/generator.o
 .text.mfc_algo_ving_one
                0x0000000000000000       0x18 obj/generator.o
 .text.mfc_algo_ving_all
                0x0000000000000000       0x40 obj/generator.o
 .text.mfc_algo_yale_one
                0x0000000000000000       0x1c obj/generator.o
 .text.mfc_algo_yale_all
                0x0000000000000000        0xc obj/generator.o
 .text.mfc_algo_saflok_one
                0x0000000000000000       0xcc obj/generator.o
 .text.mfc_algo_saflok_all
                0x0000000000000000       0x5a obj/generator.o
 .text.mfc_algo_mizip_one
                0x0000000000000000      0x100 obj/generator.o
 .text.mfc_algo_mizip_all
                0x0000000000000000       0x5a obj/generator.o
 .text.mfc_algo_di_one
                0x0000000000000000       0xfa obj/generator.o
 .text.mfc_algo_di_all
                0x0000000000000000       0x5a obj/generator.o
 .text.mfc_algo_sky_one
                0x0000000000000000       0xe4 obj/generator.o
 .text.mfc_algo_sky_all
                0x0000000000000000       0x5a obj/generator.o
 .text.mfc_algo_bambu_one
                0x0000000000000000       0x7c obj/generator.o
 .text.mfc_algo_bambu_all
                0x0000000000000000       0x74 obj/generator.o
 .text.lf_t55xx_white_pwdgen
                0x0000000000000000       0x38 obj/generator.o
 .rodata.mfdes_kdf_input_gallagher.str1.1
                0x0000000000000000       0x12 obj/generator.o
 .text.mfdes_kdf_input_gallagher
                0x0000000000000000       0x80 obj/generator.o
 .text.mfc_generate4b_nuid
                0x0000000000000000       0x5e obj/generator.o
 .text.mfc_algo_touch_one
                0x0000000000000000       0x40 obj/generator.o
 .text.generator_selftest
                0x0000000000000000        0x4 obj/generator.o
 .rodata        0x0000000000000000      0x1d0 obj/generator.o
 .rodata.bambu_context_a
                0x0000000000000000        0x7 obj/generator.o
 .rodata.bambu_context_b
                0x0000000000000000        0x7 obj/generator.o
 .rodata.bambu_salt
                0x0000000000000000       0x10 obj/generator.o
 .text          0x0000000000000000        0x0 obj/fpgaloader.o
 .data          0x0000000000000000        0x0 obj/fpgaloader.o
 .bss           0x0000000000000000        0x0 obj/fpgaloader.o
 .text.FpgaGetCurrent
                0x0000000000000000       0x10 obj/fpgaloader.o
 .text          0x0000000000000000        0x0 obj/usb_cdc.o
 .data          0x0000000000000000        0x0 obj/usb_cdc.o
 .bss           0x0000000000000000        0x0 obj/usb_cdc.o
 .text.SetUSBreconnect
                0x0000000000000000       0x10 obj/usb_cdc.o
 .text.GetUSBreconnect
                0x0000000000000000       0x10 obj/usb_cdc.o
 .text.SetUSBconfigured
                0x0000000000000000       0x10 obj/usb_cdc.o
 .text.GetUSBconfigured
                0x0000000000000000       0x10 obj/usb_cdc.o
 .text.usb_read_ng_has_buffered_data
                0x0000000000000000       0x18 obj/usb_cdc.o
 .text.usb_poll
                0x0000000000000000       0x3c obj/usb_cdc.o
 .text.usb_read
                0x0000000000000000       0xfc obj/usb_cdc.o
 .bss.usb_configured
                0x0000000000000000        0x4 obj/usb_cdc.o
 .bss.usb_reconnect
                0x0000000000000000        0x4 obj/usb_cdc.o
 .text          0x0000000000000000        0x0 obj/cmd.o
 .data          0x0000000000000000        0x0 obj/cmd.o
 .bss           0x0000000000000000        0x0 obj/cmd.o
 .data          0x0000000000000000        0x0 /usr/local/Cellar/arm-none-eabi-gcc/10.3-2021.10/gcc/bin/../lib/gcc/arm-none-eabi/10.3.1/libgcc.a(_thumb1_case_sqi.o)
 .bss           0x0000000000000000        0x0 /usr/local/Cellar/arm-none-eabi-gcc/10.3-2021.10/gcc/bin/../lib/gcc/arm-none-eabi/10.3.1/libgcc.a(_thumb1_case_sqi.o)
 .data          0x0000000000000000        0x0 /usr/local/Cellar/arm-none-eabi-gcc/10.3-2021.10/gcc/bin/../lib/gcc/arm-none-eabi/10.3.1/libgcc.a(_thumb1_case_uqi.o)
 .bss           0x0000000000000000        0x0 /usr/local/Cellar/arm-none-eabi-gcc/10.3-2021.10/gcc/bin/../lib/gcc/arm-none-eabi/10.3.1/libgcc.a(_thumb1_case_uqi.o)
 .data          0x0000000000000000        0x0 /usr/local/Cellar/arm-none-eabi-gcc/10.3-2021.10/gcc/bin/../lib/gcc/arm-none-eabi/10.3.1/libgcc.a(_thumb1_case_shi.o)
 .bss           0x0000000000000000        0x0 /usr/local/Cellar/arm-none-eabi-gcc/10.3-2021.10/gcc/bin/../lib/gcc/arm-none-eabi/10.3.1/libgcc.a(_thumb1_case_shi.o)
 .data          0x0000000000000000        0x0 /usr/local/Cellar/arm-none-eabi-gcc/10.3-2021.10/gcc/bin/../lib/gcc/arm-none-eabi/10.3.1/libgcc.a(_thumb1_case_uhi.o)
 .bss           0x0000000000000000        0x0 /usr/local/Cellar/arm-none-eabi-gcc/10.3-2021.10/gcc/bin/../lib/gcc/arm-none-eabi/10.3.1/libgcc.a(_thumb1_case_uhi.o)
 .data          0x0000000000000000        0x0 /usr/local/Cellar/arm-none-eabi-gcc/10.3-2021.10/gcc/bin/../lib/gcc/arm-none-eabi/10.3.1/libgcc.a(_thumb1_case_si.o)
 .bss           0x0000000000000000        0x0 /usr/local/Cellar/arm-none-eabi-gcc/10.3-2021.10/gcc/bin/../lib/gcc/arm-none-eabi/10.3.1/libgcc.a(_thumb1_case_si.o)
 .data          0x0000000000000000        0x0 /usr/local/Cellar/arm-none-eabi-gcc/10.3-2021.10/gcc/bin/../lib/gcc/arm-none-eabi/10.3.1/libgcc.a(_udivsi3.o)
 .bss           0x0000000000000000        0x0 /usr/local/Cellar/arm-none-eabi-gcc/10.3-2021.10/gcc/bin/../lib/gcc/arm-none-eabi/10.3.1/libgcc.a(_udivsi3.o)
 .data          0x0000000000000000        0x0 /usr/local/Cellar/arm-none-eabi-gcc/10.3-2021.10/gcc/bin/../lib/gcc/arm-none-eabi/10.3.1/libgcc.a(_divsi3.o)
 .bss           0x0000000000000000        0x0 /usr/local/Cellar/arm-none-eabi-gcc/10.3-2021.10/gcc/bin/../lib/gcc/arm-none-eabi/10.3.1/libgcc.a(_divsi3.o)
 .data          0x0000000000000000        0x0 /usr/local/Cellar/arm-none-eabi-gcc/10.3-2021.10/gcc/bin/../lib/gcc/arm-none-eabi/10.3.1/libgcc.a(_dvmd_tls.o)
 .bss           0x0000000000000000        0x0 /usr/local/Cellar/arm-none-eabi-gcc/10.3-2021.10/gcc/bin/../lib/gcc/arm-none-eabi/10.3.1/libgcc.a(_dvmd_tls.o)
 .data          0x0000000000000000        0x0 /usr/local/Cellar/arm-none-eabi-gcc/10.3-2021.10/gcc/bin/../lib/gcc/arm-none-eabi/10.3.1/libgcc.a(_lshrdi3.o)
 .bss           0x0000000000000000        0x0 /usr/local/Cellar/arm-none-eabi-gcc/10.3-2021.10/gcc/bin/../lib/gcc/arm-none-eabi/10.3.1/libgcc.a(_lshrdi3.o)
 .data          0x0000000000000000        0x0 /usr/local/Cellar/arm-none-eabi-gcc/10.3-2021.10/gcc/bin/../lib/gcc/arm-none-eabi/10.3.1/libgcc.a(_ashldi3.o)
 .bss           0x0000000000000000        0x0 /usr/local/Cellar/arm-none-eabi-gcc/10.3-2021.10/gcc/bin/../lib/gcc/arm-none-eabi/10.3.1/libgcc.a(_ashldi3.o)
 .data          0x0000000000000000        0x0 /usr/local/Cellar/arm-none-eabi-gcc/10.3-2021.10/gcc/bin/../lib/gcc/arm-none-eabi/10.3.1/libgcc.a(_arm_addsubdf3.o)
 .bss           0x0000000000000000        0x0 /usr/local/Cellar/arm-none-eabi-gcc/10.3-2021.10/gcc/bin/../lib/gcc/arm-none-eabi/10.3.1/libgcc.a(_arm_addsubdf3.o)
 .data          0x0000000000000000        0x0 /usr/local/Cellar/arm-none-eabi-gcc/10.3-2021.10/gcc/bin/../lib/gcc/arm-none-eabi/10.3.1/libgcc.a(_arm_muldivdf3.o)
 .bss           0x0000000000000000        0x0 /usr/local/Cellar/arm-none-eabi-gcc/10.3-2021.10/gcc/bin/../lib/gcc/arm-none-eabi/10.3.1/libgcc.a(_arm_muldivdf3.o)
 .data          0x0000000000000000        0x0 /usr/local/Cellar/arm-none-eabi-gcc/10.3-2021.10/gcc/bin/../lib/gcc/arm-none-eabi/10.3.1/libgcc.a(_arm_fixunsdfsi.o)
 .bss           0x0000000000000000        0x0 /usr/local/Cellar/arm-none-eabi-gcc/10.3-2021.10/gcc/bin/../lib/gcc/arm-none-eabi/10.3.1/libgcc.a(_arm_fixunsdfsi.o)
 .text          0x0000000000000000       0x50 /usr/local/Cellar/arm-none-eabi-gcc/10.3-2021.10/gcc/bin/../lib/gcc/arm-none-eabi/10.3.1/libgcc.a(_ctzsi2.o)
 .data          0x0000000000000000        0x0 /usr/local/Cellar/arm-none-eabi-gcc/10.3-2021.10/gcc/bin/../lib/gcc/arm-none-eabi/10.3.1/libgcc.a(_ctzsi2.o)
 .bss           0x0000000000000000        0x0 /usr/local/Cellar/arm-none-eabi-gcc/10.3-2021.10/gcc/bin/../lib/gcc/arm-none-eabi/10.3.1/libgcc.a(_ctzsi2.o)
 .ARM.attributes
                0x0000000000000000       0x1c /usr/local/Cellar/arm-none-eabi-gcc/10.3-2021.10/gcc/bin/../lib/gcc/arm-none-eabi/10.3.1/libgcc.a(_ctzsi2.o)
 .text          0x0000000000000000       0xd4 /usr/local/Cellar/arm-none-eabi-gcc/10.3-2021.10/gcc/bin/../lib/gcc/arm-none-eabi/10.3.1/libgcc.a(_aeabi_ldivmod.o)
 .data          0x0000000000000000        0x0 /usr/local/Cellar/arm-none-eabi-gcc/10.3-2021.10/gcc/bin/../lib/gcc/arm-none-eabi/10.3.1/libgcc.a(_aeabi_ldivmod.o)
 .bss           0x0000000000000000        0x0 /usr/local/Cellar/arm-none-eabi-gcc/10.3-2021.10/gcc/bin/../lib/gcc/arm-none-eabi/10.3.1/libgcc.a(_aeabi_ldivmod.o)
 .debug_frame   0x0000000000000000       0x44 /usr/local/Cellar/arm-none-eabi-gcc/10.3-2021.10/gcc/bin/../lib/gcc/arm-none-eabi/10.3.1/libgcc.a(_aeabi_ldivmod.o)
 .ARM.attributes
                0x0000000000000000       0x1c /usr/local/Cellar/arm-none-eabi-gcc/10.3-2021.10/gcc/bin/../lib/gcc/arm-none-eabi/10.3.1/libgcc.a(_aeabi_ldivmod.o)
 .data          0x0000000000000000        0x0 /usr/local/Cellar/arm-none-eabi-gcc/10.3-2021.10/gcc/bin/../lib/gcc/arm-none-eabi/10.3.1/libgcc.a(_aeabi_uldivmod.o)
 .bss           0x0000000000000000        0x0 /usr/local/Cellar/arm-none-eabi-gcc/10.3-2021.10/gcc/bin/../lib/gcc/arm-none-eabi/10.3.1/libgcc.a(_aeabi_uldivmod.o)
 .data          0x0000000000000000        0x0 /usr/local/Cellar/arm-none-eabi-gcc/10.3-2021.10/gcc/bin/../lib/gcc/arm-none-eabi/10.3.1/libgcc.a(_muldi3.o)
 .bss           0x0000000000000000        0x0 /usr/local/Cellar/arm-none-eabi-gcc/10.3-2021.10/gcc/bin/../lib/gcc/arm-none-eabi/10.3.1/libgcc.a(_muldi3.o)
 .data          0x0000000000000000        0x0 /usr/local/Cellar/arm-none-eabi-gcc/10.3-2021.10/gcc/bin/../lib/gcc/arm-none-eabi/10.3.1/libgcc.a(_paritysi2.o)
 .bss           0x0000000000000000        0x0 /usr/local/Cellar/arm-none-eabi-gcc/10.3-2021.10/gcc/bin/../lib/gcc/arm-none-eabi/10.3.1/libgcc.a(_paritysi2.o)
 .text          0x0000000000000000       0x28 /usr/local/Cellar/arm-none-eabi-gcc/10.3-2021.10/gcc/bin/../lib/gcc/arm-none-eabi/10.3.1/libgcc.a(_paritydi2.o)
 .data          0x0000000000000000        0x0 /usr/local/Cellar/arm-none-eabi-gcc/10.3-2021.10/gcc/bin/../lib/gcc/arm-none-eabi/10.3.1/libgcc.a(_paritydi2.o)
 .bss           0x0000000000000000        0x0 /usr/local/Cellar/arm-none-eabi-gcc/10.3-2021.10/gcc/bin/../lib/gcc/arm-none-eabi/10.3.1/libgcc.a(_paritydi2.o)
 .debug_frame   0x0000000000000000       0x20 /usr/local/Cellar/arm-none-eabi-gcc/10.3-2021.10/gcc/bin/../lib/gcc/arm-none-eabi/10.3.1/libgcc.a(_paritydi2.o)
 .ARM.attributes
                0x0000000000000000       0x2a /usr/local/Cellar/arm-none-eabi-gcc/10.3-2021.10/gcc/bin/../lib/gcc/arm-none-eabi/10.3.1/libgcc.a(_paritydi2.o)
 .data          0x0000000000000000        0x0 /usr/local/Cellar/arm-none-eabi-gcc/10.3-2021.10/gcc/bin/../lib/gcc/arm-none-eabi/10.3.1/libgcc.a(_bswapsi2.o)
 .bss           0x0000000000000000        0x0 /usr/local/Cellar/arm-none-eabi-gcc/10.3-2021.10/gcc/bin/../lib/gcc/arm-none-eabi/10.3.1/libgcc.a(_bswapsi2.o)
 .text          0x0000000000000000       0x28 /usr/local/Cellar/arm-none-eabi-gcc/10.3-2021.10/gcc/bin/../lib/gcc/arm-none-eabi/10.3.1/libgcc.a(_bswapdi2.o)
 .data          0x0000000000000000        0x0 /usr/local/Cellar/arm-none-eabi-gcc/10.3-2021.10/gcc/bin/../lib/gcc/arm-none-eabi/10.3.1/libgcc.a(_bswapdi2.o)
 .bss           0x0000000000000000        0x0 /usr/local/Cellar/arm-none-eabi-gcc/10.3-2021.10/gcc/bin/../lib/gcc/arm-none-eabi/10.3.1/libgcc.a(_bswapdi2.o)
 .debug_frame   0x0000000000000000       0x20 /usr/local/Cellar/arm-none-eabi-gcc/10.3-2021.10/gcc/bin/../lib/gcc/arm-none-eabi/10.3.1/libgcc.a(_bswapdi2.o)
 .ARM.attributes
                0x0000000000000000       0x2a /usr/local/Cellar/arm-none-eabi-gcc/10.3-2021.10/gcc/bin/../lib/gcc/arm-none-eabi/10.3.1/libgcc.a(_bswapdi2.o)
 .data          0x0000000000000000        0x0 /usr/local/Cellar/arm-none-eabi-gcc/10.3-2021.10/gcc/bin/../lib/gcc/arm-none-eabi/10.3.1/libgcc.a(_udivmoddi4.o)
 .bss           0x0000000000000000        0x0 /usr/local/Cellar/arm-none-eabi-gcc/10.3-2021.10/gcc/bin/../lib/gcc/arm-none-eabi/10.3.1/libgcc.a(_udivmoddi4.o)
 .ARM.extab     0x0000000000000000        0x0 /usr/local/Cellar/arm-none-eabi-gcc/10.3-2021.10/gcc/bin/../lib/gcc/arm-none-eabi/10.3.1/libgcc.a(_udivmoddi4.o)
 .data          0x0000000000000000        0x0 /usr/local/Cellar/arm-none-eabi-gcc/10.3-2021.10/gcc/bin/../lib/gcc/arm-none-eabi/10.3.1/libgcc.a(_clzdi2.o)
 .bss           0x0000000000000000        0x0 /usr/local/Cellar/arm-none-eabi-gcc/10.3-2021.10/gcc/bin/../lib/gcc/arm-none-eabi/10.3.1/libgcc.a(_clzdi2.o)
 .data          0x0000000000000000        0x0 /usr/local/Cellar/arm-none-eabi-gcc/10.3-2021.10/gcc/bin/../lib/gcc/arm-none-eabi/10.3.1/libgcc.a(_clzsi2.o)
 .bss           0x0000000000000000        0x0 /usr/local/Cellar/arm-none-eabi-gcc/10.3-2021.10/gcc/bin/../lib/gcc/arm-none-eabi/10.3.1/libgcc.a(_clzsi2.o)

Memory Configuration

Name             Origin             Length             Attributes
bootphase1       0x0000000000100000 0x0000000000000200
bootphase2       0x0000000000100200 0x0000000000001e00
osimage          0x0000000000102000 0x000000000007e000
ram              0x0000000000200000 0x000000000000ffe0
stack            0x000000000020deb8 0x0000000000002128
commonarea       0x000000000020ffe0 0x0000000000000020
*default*        0x0000000000000000 0xffffffffffffffff

Linker script and memory map

                0x0000000000002128                stacksize = DEFINED (stacksize)?stacksize:0x2128
                0x0000000000000020                commonareasize = 0x20
                0x00000000001001fc                _bootphase1_version_pointer = ((ORIGIN (bootphase1) + LENGTH (bootphase1)) - 0x4)
                0x0000000000102000                _osimage_entry = ORIGIN (osimage)
                0x0000000000100000                _bootrom_start = ORIGIN (bootphase1)
                0x0000000000102000                _bootrom_end = (ORIGIN (bootphase2) + LENGTH (bootphase2))
                0x0000000000100000                _flash_start = ORIGIN (bootphase1)
                0x0000000000180000                _flash_end = (ORIGIN (osimage) + LENGTH (osimage))
                0x000000000020deb8                _stack_start = ORIGIN (stack)
                0x000000000020ffd8                _stack_end = ((ORIGIN (ram) + LENGTH (ram)) - 0x8)

.start          0x0000000000102000      0x120
 *(.startos)
 .startos       0x0000000000102000      0x120 obj/start.o
                0x0000000000102000                Vector

.text           0x0000000000102120    0x37168
 *(.text)
 .text          0x0000000000102120       0x14 /usr/local/Cellar/arm-none-eabi-gcc/10.3-2021.10/gcc/bin/../lib/gcc/arm-none-eabi/10.3.1/libgcc.a(_thumb1_case_sqi.o)
                0x0000000000102120                __gnu_thumb1_case_sqi
 .text          0x0000000000102134       0x14 /usr/local/Cellar/arm-none-eabi-gcc/10.3-2021.10/gcc/bin/../lib/gcc/arm-none-eabi/10.3.1/libgcc.a(_thumb1_case_uqi.o)
                0x0000000000102134                __gnu_thumb1_case_uqi
 .text          0x0000000000102148       0x14 /usr/local/Cellar/arm-none-eabi-gcc/10.3-2021.10/gcc/bin/../lib/gcc/arm-none-eabi/10.3.1/libgcc.a(_thumb1_case_shi.o)
                0x0000000000102148                __gnu_thumb1_case_shi
 .text          0x000000000010215c       0x14 /usr/local/Cellar/arm-none-eabi-gcc/10.3-2021.10/gcc/bin/../lib/gcc/arm-none-eabi/10.3.1/libgcc.a(_thumb1_case_uhi.o)
                0x000000000010215c                __gnu_thumb1_case_uhi
 .text          0x0000000000102170       0x18 /usr/local/Cellar/arm-none-eabi-gcc/10.3-2021.10/gcc/bin/../lib/gcc/arm-none-eabi/10.3.1/libgcc.a(_thumb1_case_si.o)
                0x0000000000102170                __gnu_thumb1_case_si
 .text          0x0000000000102188      0x114 /usr/local/Cellar/arm-none-eabi-gcc/10.3-2021.10/gcc/bin/../lib/gcc/arm-none-eabi/10.3.1/libgcc.a(_udivsi3.o)
                0x0000000000102188                __udivsi3
                0x0000000000102188                __aeabi_uidiv
                0x000000000010227c                __aeabi_uidivmod
 .text          0x000000000010229c      0x148 /usr/local/Cellar/arm-none-eabi-gcc/10.3-2021.10/gcc/bin/../lib/gcc/arm-none-eabi/10.3.1/libgcc.a(_divsi3.o)
                0x000000000010229c                __aeabi_idiv
                0x000000000010229c                __divsi3
                0x00000000001023c4                __aeabi_idivmod
 .text          0x00000000001023e4        0x4 /usr/local/Cellar/arm-none-eabi-gcc/10.3-2021.10/gcc/bin/../lib/gcc/arm-none-eabi/10.3.1/libgcc.a(_dvmd_tls.o)
                0x00000000001023e4                __aeabi_ldiv0
                0x00000000001023e4                __aeabi_idiv0
 .text          0x00000000001023e8       0x1c /usr/local/Cellar/arm-none-eabi-gcc/10.3-2021.10/gcc/bin/../lib/gcc/arm-none-eabi/10.3.1/libgcc.a(_lshrdi3.o)
                0x00000000001023e8                __aeabi_llsr
                0x00000000001023e8                __lshrdi3
 .text          0x0000000000102404       0x1c /usr/local/Cellar/arm-none-eabi-gcc/10.3-2021.10/gcc/bin/../lib/gcc/arm-none-eabi/10.3.1/libgcc.a(_ashldi3.o)
                0x0000000000102404                __ashldi3
                0x0000000000102404                __aeabi_llsl
 .text          0x0000000000102420      0x424 /usr/local/Cellar/arm-none-eabi-gcc/10.3-2021.10/gcc/bin/../lib/gcc/arm-none-eabi/10.3.1/libgcc.a(_arm_addsubdf3.o)
                0x0000000000102420                __aeabi_drsub
                0x0000000000102428                __subdf3
                0x0000000000102428                __aeabi_dsub
                0x000000000010242c                __aeabi_dadd
                0x000000000010242c                __adddf3
                0x000000000010273c                __aeabi_ui2d
                0x000000000010273c                __floatunsidf
                0x0000000000102760                __floatsidf
                0x0000000000102760                __aeabi_i2d
                0x0000000000102788                __extendsfdf2
                0x0000000000102788                __aeabi_f2d
                0x00000000001027d0                __aeabi_ul2d
                0x00000000001027d0                __floatundidf
                0x00000000001027e4                __aeabi_l2d
                0x00000000001027e4                __floatdidf
 .text          0x0000000000102844      0x49c /usr/local/Cellar/arm-none-eabi-gcc/10.3-2021.10/gcc/bin/../lib/gcc/arm-none-eabi/10.3.1/libgcc.a(_arm_muldivdf3.o)
                0x0000000000102844                __aeabi_dmul
                0x0000000000102844                __muldf3
                0x0000000000102ad4                __aeabi_ddiv
                0x0000000000102ad4                __divdf3
 .text          0x0000000000102ce0       0x54 /usr/local/Cellar/arm-none-eabi-gcc/10.3-2021.10/gcc/bin/../lib/gcc/arm-none-eabi/10.3.1/libgcc.a(_arm_fixunsdfsi.o)
                0x0000000000102ce0                __fixunsdfsi
                0x0000000000102ce0                __aeabi_d2uiz
 .text          0x0000000000102d34       0x3c /usr/local/Cellar/arm-none-eabi-gcc/10.3-2021.10/gcc/bin/../lib/gcc/arm-none-eabi/10.3.1/libgcc.a(_aeabi_uldivmod.o)
                0x0000000000102d34                __aeabi_uldivmod
 .text          0x0000000000102d70       0x1c /usr/local/Cellar/arm-none-eabi-gcc/10.3-2021.10/gcc/bin/../lib/gcc/arm-none-eabi/10.3.1/libgcc.a(_muldi3.o)
                0x0000000000102d70                __aeabi_lmul
                0x0000000000102d70                __muldi3
 .text          0x0000000000102d8c       0x24 /usr/local/Cellar/arm-none-eabi-gcc/10.3-2021.10/gcc/bin/../lib/gcc/arm-none-eabi/10.3.1/libgcc.a(_paritysi2.o)
                0x0000000000102d8c                __paritysi2
 .text          0x0000000000102db0       0x14 /usr/local/Cellar/arm-none-eabi-gcc/10.3-2021.10/gcc/bin/../lib/gcc/arm-none-eabi/10.3.1/libgcc.a(_bswapsi2.o)
                0x0000000000102db0                __bswapsi2
 .text          0x0000000000102dc4      0x128 /usr/local/Cellar/arm-none-eabi-gcc/10.3-2021.10/gcc/bin/../lib/gcc/arm-none-eabi/10.3.1/libgcc.a(_udivmoddi4.o)
                0x0000000000102dc4                __udivmoddi4
 .text          0x0000000000102eec       0x28 /usr/local/Cellar/arm-none-eabi-gcc/10.3-2021.10/gcc/bin/../lib/gcc/arm-none-eabi/10.3.1/libgcc.a(_clzdi2.o)
                0x0000000000102eec                __clzdi2
 .text          0x0000000000102f14       0x48 /usr/local/Cellar/arm-none-eabi-gcc/10.3-2021.10/gcc/bin/../lib/gcc/arm-none-eabi/10.3.1/libgcc.a(_clzsi2.o)
                0x0000000000102f14                __clzsi2
 *(.text.*)
 .text.BuildIdentifyRequest
                0x0000000000102f5c       0x24 obj/iso15693.o
 .text.init_password_15693_Slix
                0x0000000000102f80       0x32 obj/iso15693.o
 *fill*         0x0000000000102fb2        0x2 
 .text.CodeIso15693AsReader
                0x0000000000102fb4       0xa4 obj/iso15693.o
                0x0000000000102fb4                CodeIso15693AsReader
 .text.CodeIso15693AsTag
                0x0000000000103058       0x64 obj/iso15693.o
                0x0000000000103058                CodeIso15693AsTag
 .text.TransmitTo15693Tag
                0x00000000001030bc       0xe0 obj/iso15693.o
                0x00000000001030bc                TransmitTo15693Tag
 .text.TransmitTo15693Reader
                0x000000000010319c      0x11c obj/iso15693.o
                0x000000000010319c                TransmitTo15693Reader
 .text.GetIso15693AnswerFromTag
                0x00000000001032b8      0x278 obj/iso15693.o
                0x00000000001032b8                GetIso15693AnswerFromTag
 .text.GetIso15693CommandFromReader
                0x0000000000103530      0x1b4 obj/iso15693.o
                0x0000000000103530                GetIso15693CommandFromReader
 .text.AcquireRawAdcSamplesIso15693
                0x00000000001036e4       0xdc obj/iso15693.o
                0x00000000001036e4                AcquireRawAdcSamplesIso15693
 .text.SniffIso15693
                0x00000000001037c0      0x4c8 obj/iso15693.o
                0x00000000001037c0                SniffIso15693
 .text.Iso15693InitReader
                0x0000000000103c88       0x54 obj/iso15693.o
                0x0000000000103c88                Iso15693InitReader
 .text.SendDataTag
                0x0000000000103cdc      0x110 obj/iso15693.o
                0x0000000000103cdc                SendDataTag
 .text.write_password_15693_Slix.constprop.0
                0x0000000000103dec       0xbc obj/iso15693.o
 .text.get_rnd_15693_Slix.constprop.0
                0x0000000000103ea8       0x84 obj/iso15693.o
 .text.disable_privacy_15693_Slix.constprop.0
                0x0000000000103f2c       0xac obj/iso15693.o
 .text.set_pass_15693_Slix.constprop.0
                0x0000000000103fd8       0xd0 obj/iso15693.o
 .text.set_privacy_15693_Slix.constprop.0
                0x00000000001040a8       0x9c obj/iso15693.o
 .text.get_uid_slix.constprop.0
                0x0000000000104144       0xa0 obj/iso15693.o
 .text.disable_eas_15693_Slix.constprop.0
                0x00000000001041e4       0xb4 obj/iso15693.o
 .text.enable_eas_15693_Slix.constprop.0
                0x0000000000104298       0xb4 obj/iso15693.o
 .text.pass_protect_EASAFI_15693_Slix.constprop.0
                0x000000000010434c       0xb0 obj/iso15693.o
 .text.write_afi_15693.constprop.0
                0x00000000001043fc       0xdc obj/iso15693.o
 .text.SendDataTagEOF
                0x00000000001044d8       0x8a obj/iso15693.o
                0x00000000001044d8                SendDataTagEOF
 *fill*         0x0000000000104562        0x2 
 .text.ReaderIso15693
                0x0000000000104564      0x2d4 obj/iso15693.o
                0x0000000000104564                ReaderIso15693
 .text.Iso15693InitTag
                0x0000000000104838       0x42 obj/iso15693.o
                0x0000000000104838                Iso15693InitTag
 .text.EmlClearIso15693
                0x000000000010487a       0x20 obj/iso15693.o
                0x000000000010487a                EmlClearIso15693
 *fill*         0x000000000010489a        0x2 
 .text.SimTagIso15693
                0x000000000010489c      0x9f8 obj/iso15693.o
                0x000000000010489c                SimTagIso15693
 .text.BruteforceIso15693Afi
                0x0000000000105294      0x1c0 obj/iso15693.o
                0x0000000000105294                BruteforceIso15693Afi
 .text.SendRawCommand15693
                0x0000000000105454      0x1c0 obj/iso15693.o
                0x0000000000105454                SendRawCommand15693
 .text.SetTag15693Uid
                0x0000000000105614      0x12c obj/iso15693.o
                0x0000000000105614                SetTag15693Uid
 .text.SetTag15693Uid_v2
                0x0000000000105740      0x128 obj/iso15693.o
                0x0000000000105740                SetTag15693Uid_v2
 .text.WritePasswordSlixIso15693
                0x0000000000105868       0x74 obj/iso15693.o
                0x0000000000105868                WritePasswordSlixIso15693
 .text.DisablePrivacySlixIso15693
                0x00000000001058dc       0x44 obj/iso15693.o
                0x00000000001058dc                DisablePrivacySlixIso15693
 .text.EnablePrivacySlixIso15693
                0x0000000000105920       0x44 obj/iso15693.o
                0x0000000000105920                EnablePrivacySlixIso15693
 .text.DisableEAS_AFISlixIso15693
                0x0000000000105964       0x44 obj/iso15693.o
                0x0000000000105964                DisableEAS_AFISlixIso15693
 .text.EnableEAS_AFISlixIso15693
                0x00000000001059a8       0x48 obj/iso15693.o
                0x00000000001059a8                EnableEAS_AFISlixIso15693
 .text.PassProtextEASSlixIso15693
                0x00000000001059f0       0x44 obj/iso15693.o
                0x00000000001059f0                PassProtextEASSlixIso15693
 .text.PassProtectAFISlixIso15693
                0x0000000000105a34       0x44 obj/iso15693.o
                0x0000000000105a34                PassProtectAFISlixIso15693
 .text.WriteAFIIso15693
                0x0000000000105a78       0x60 obj/iso15693.o
                0x0000000000105a78                WriteAFIIso15693
 .text.iso15693_sprintUID
                0x0000000000105ad8       0x48 obj/iso15693tools.o
                0x0000000000105ad8                iso15693_sprintUID
 .text.ReadThinFilm
                0x0000000000105b20       0x5a obj/thinfilm.o
                0x0000000000105b20                ReadThinFilm
 *fill*         0x0000000000105b7a        0x2 
 .text.SimulateThinFilm
                0x0000000000105b7c      0x214 obj/thinfilm.o
                0x0000000000105b7c                SimulateThinFilm
 .text.Prepare_Cmd
                0x0000000000105d90       0x24 obj/lfops.o
 .text.Prepare_Addr
                0x0000000000105db4       0x30 obj/lfops.o
 .text.Prepare_Data
                0x0000000000105de4       0x6c obj/lfops.o
 .text.T55xx_SetBits
                0x0000000000105e50       0x7c obj/lfops.o
 .text.WriteTIbyte
                0x0000000000105ecc       0x60 obj/lfops.o
 .text.fcAll    0x0000000000105f2c       0xb4 obj/lfops.o
 .text.biphaseSimBit
                0x0000000000105fe0       0x62 obj/lfops.o
 .text.leadingZeroAskSimBits.constprop.0
                0x0000000000106042       0x24 obj/lfops.o
 *fill*         0x0000000000106066        0x2 
 .text.printT55xxConfig
                0x0000000000106068      0x1d8 obj/lfops.o
                0x0000000000106068                printT55xxConfig
 .text.setT55xxConfig
                0x0000000000106240       0xe8 obj/lfops.o
                0x0000000000106240                setT55xxConfig
 .text.loadT55xxConfig
                0x0000000000106328       0x9c obj/lfops.o
                0x0000000000106328                loadT55xxConfig
 .text.AcquireTiType
                0x00000000001063c4      0x104 obj/lfops.o
                0x00000000001063c4                AcquireTiType
 .text.ReadTItag
                0x00000000001064c8      0x1a0 obj/lfops.o
                0x00000000001064c8                ReadTItag
 .text.WriteTItag
                0x0000000000106668      0x160 obj/lfops.o
                0x0000000000106668                WriteTItag
 .text.SimulateTagLowFrequencyEx
                0x00000000001067c8      0x15c obj/lfops.o
                0x00000000001067c8                SimulateTagLowFrequencyEx
 .text.SimulateTagLowFrequency
                0x0000000000106924       0x10 obj/lfops.o
                0x0000000000106924                SimulateTagLowFrequency
 .text.SimulateTagLowFrequencyBidir
                0x0000000000106934        0x2 obj/lfops.o
                0x0000000000106934                SimulateTagLowFrequencyBidir
 *fill*         0x0000000000106936        0x2 
 .text.CmdFSKsimTAGEx
                0x0000000000106938       0xc8 obj/lfops.o
                0x0000000000106938                CmdFSKsimTAGEx
 .text.CmdHIDsimTAGEx
                0x0000000000106a00       0xc8 obj/lfops.o
                0x0000000000106a00                CmdHIDsimTAGEx
 .text.CmdHIDsimTAG
                0x0000000000106ac8       0x28 obj/lfops.o
                0x0000000000106ac8                CmdHIDsimTAG
 .text.CmdFSKsimTAG
                0x0000000000106af0       0x34 obj/lfops.o
                0x0000000000106af0                CmdFSKsimTAG
 .text.CmdASKsimTAG
                0x0000000000106b24      0x220 obj/lfops.o
                0x0000000000106b24                CmdASKsimTAG
 .text.CmdPSKsimTAG
                0x0000000000106d44      0x13c obj/lfops.o
                0x0000000000106d44                CmdPSKsimTAG
 .text.CmdNRZsimTAG
                0x0000000000106e80      0x100 obj/lfops.o
                0x0000000000106e80                CmdNRZsimTAG
 .text.lf_hid_watch
                0x0000000000106f80      0x1a8 obj/lfops.o
                0x0000000000106f80                lf_hid_watch
 .text.lf_awid_watch
                0x0000000000107128      0x1c0 obj/lfops.o
                0x0000000000107128                lf_awid_watch
 .text.lf_em410x_watch
                0x00000000001072e8      0x1a4 obj/lfops.o
                0x00000000001072e8                lf_em410x_watch
 .text.lf_io_watch
                0x000000000010748c      0x130 obj/lfops.o
                0x000000000010748c                lf_io_watch
 .text.turn_read_lf_on
                0x00000000001075bc       0x16 obj/lfops.o
                0x00000000001075bc                turn_read_lf_on
 *fill*         0x00000000001075d2        0x2 
 .text.ModThenAcquireRawAdcSamples125k
                0x00000000001075d4      0x1d4 obj/lfops.o
                0x00000000001075d4                ModThenAcquireRawAdcSamples125k
 .text.T55xxWriteBit
                0x00000000001077a8       0x54 obj/lfops.o
 .text.T55xx_SendCMD
                0x00000000001077fc      0x1f0 obj/lfops.o
 .text.turn_read_lf_off
                0x00000000001079ec       0x18 obj/lfops.o
                0x00000000001079ec                turn_read_lf_off
 .text.SendForward
                0x0000000000107a04       0x78 obj/lfops.o
 .text.EM4xLoginEx
                0x0000000000107a7c       0x38 obj/lfops.o
 .text.T55xxResetRead
                0x0000000000107ab4       0x7c obj/lfops.o
                0x0000000000107ab4                T55xxResetRead
 .text.T55xxDangerousRawTest
                0x0000000000107b30      0x190 obj/lfops.o
                0x0000000000107b30                T55xxDangerousRawTest
 .text.T55xxWriteBlock
                0x0000000000107cc0       0x98 obj/lfops.o
                0x0000000000107cc0                T55xxWriteBlock
 .text.WriteT55xx
                0x0000000000107d58       0x3c obj/lfops.o
 .text.T55xxReadBlock
                0x0000000000107d94       0xec obj/lfops.o
                0x0000000000107d94                T55xxReadBlock
 .text.T55xx_ChkPwds
                0x0000000000107e80      0x278 obj/lfops.o
                0x0000000000107e80                T55xx_ChkPwds
 .text.T55xxWakeUp
                0x00000000001080f8       0x44 obj/lfops.o
                0x00000000001080f8                T55xxWakeUp
 .text.EM4xBruteforce
                0x000000000010813c      0x150 obj/lfops.o
                0x000000000010813c                EM4xBruteforce
 .text.EM4xLogin
                0x000000000010828c       0x7c obj/lfops.o
                0x000000000010828c                EM4xLogin
 .text.EM4xReadWord
                0x0000000000108308       0xac obj/lfops.o
                0x0000000000108308                EM4xReadWord
 .text.EM4xWriteWord
                0x00000000001083b4       0xd8 obj/lfops.o
                0x00000000001083b4                EM4xWriteWord
 .text.WriteEM4x05
                0x000000000010848c       0xa4 obj/lfops.o
 .text.CopyHIDtoT55x7
                0x0000000000108530      0x164 obj/lfops.o
                0x0000000000108530                CopyHIDtoT55x7
 .text.CopyVikingtoT55xx
                0x0000000000108694       0x84 obj/lfops.o
                0x0000000000108694                CopyVikingtoT55xx
 .text.copy_em410x_to_t55xx
                0x0000000000108718      0x2bc obj/lfops.o
                0x0000000000108718                copy_em410x_to_t55xx
 .text.EM4xProtectWord
                0x00000000001089d4       0xc0 obj/lfops.o
                0x00000000001089d4                EM4xProtectWord
 .text.Cotag    0x0000000000108a94       0xfc obj/lfops.o
                0x0000000000108a94                Cotag
 .text.printLFConfig
                0x0000000000108b90       0xd0 obj/lfsampling.o
                0x0000000000108b90                printLFConfig
 .text.printSamples
                0x0000000000108c60       0x34 obj/lfsampling.o
                0x0000000000108c60                printSamples
 .text.setSamplingConfig
                0x0000000000108c94       0xb4 obj/lfsampling.o
                0x0000000000108c94                setSamplingConfig
 .text.setDefaultSamplingConfig
                0x0000000000108d48       0x14 obj/lfsampling.o
                0x0000000000108d48                setDefaultSamplingConfig
 .text.getSamplingConfig
                0x0000000000108d5c        0x8 obj/lfsampling.o
                0x0000000000108d5c                getSamplingConfig
 .text.initSampleBufferEx
                0x0000000000108d64       0x74 obj/lfsampling.o
                0x0000000000108d64                initSampleBufferEx
 .text.initSampleBuffer
                0x0000000000108dd8        0xe obj/lfsampling.o
                0x0000000000108dd8                initSampleBuffer
 *fill*         0x0000000000108de6        0x2 
 .text.getSampleCounter
                0x0000000000108de8        0xc obj/lfsampling.o
                0x0000000000108de8                getSampleCounter
 .text.logSample
                0x0000000000108df4       0xb8 obj/lfsampling.o
                0x0000000000108df4                logSample
 .text.logSampleSimple
                0x0000000000108eac       0x20 obj/lfsampling.o
                0x0000000000108eac                logSampleSimple
 .text.LFSetupFPGAForADC
                0x0000000000108ecc       0x54 obj/lfsampling.o
                0x0000000000108ecc                LFSetupFPGAForADC
 .text.DoAcquisition
                0x0000000000108f20      0x184 obj/lfsampling.o
                0x0000000000108f20                DoAcquisition
 .text.DoAcquisition_default
                0x00000000001090a4       0x20 obj/lfsampling.o
                0x00000000001090a4                DoAcquisition_default
 .text.DoAcquisition_config
                0x00000000001090c4       0x5c obj/lfsampling.o
                0x00000000001090c4                DoAcquisition_config
 .text.DoPartialAcquisition
                0x0000000000109120       0x3c obj/lfsampling.o
                0x0000000000109120                DoPartialAcquisition
 .text.SampleLF
                0x000000000010915c       0x50 obj/lfsampling.o
                0x000000000010915c                SampleLF
 .text.ReadLF_realtime
                0x00000000001091ac      0x1b4 obj/lfsampling.o
                0x00000000001091ac                ReadLF_realtime
 .text.SniffLF  0x0000000000109360       0x50 obj/lfsampling.o
                0x0000000000109360                SniffLF
 .text.doCotagAcquisition
                0x00000000001093b0       0xec obj/lfsampling.o
                0x00000000001093b0                doCotagAcquisition
 .text.doCotagAcquisitionManchester
                0x000000000010949c       0xe0 obj/lfsampling.o
                0x000000000010949c                doCotagAcquisitionManchester
 .text.DemodPCF7931
                0x000000000010957c      0x1f4 obj/pcf7931.o
                0x000000000010957c                DemodPCF7931
 .text.IsBlock0PCF7931
                0x0000000000109770       0x44 obj/pcf7931.o
                0x0000000000109770                IsBlock0PCF7931
 .text.IsBlock1PCF7931
                0x00000000001097b4       0x40 obj/pcf7931.o
                0x00000000001097b4                IsBlock1PCF7931
 .text.ReadPCF7931
                0x00000000001097f4      0x410 obj/pcf7931.o
                0x00000000001097f4                ReadPCF7931
 .text.SendCmdPCF7931
                0x0000000000109c04       0xfc obj/pcf7931.o
                0x0000000000109c04                SendCmdPCF7931
 .text.AddBitPCF7931
                0x0000000000109d00       0x88 obj/pcf7931.o
                0x0000000000109d00                AddBitPCF7931
 .text.AddBytePCF7931
                0x0000000000109d88       0x44 obj/pcf7931.o
                0x0000000000109d88                AddBytePCF7931
 .text.AddPatternPCF7931
                0x0000000000109dcc       0x40 obj/pcf7931.o
                0x0000000000109dcc                AddPatternPCF7931
 .text.RealWritePCF7931
                0x0000000000109e0c      0x1f4 obj/pcf7931.o
 .text.WritePCF7931
                0x000000000010a000       0xe4 obj/pcf7931.o
                0x000000000010a000                WritePCF7931
 .text.getClosestClock
                0x000000000010a0e4       0x4c obj/lfdemod.o
 .text.findModStart
                0x000000000010a130       0x94 obj/lfdemod.o
 .text.computeSignalProperties
                0x000000000010a1c4       0xdc obj/lfdemod.o
                0x000000000010a1c4                computeSignalProperties
 .text.removeSignalOffset
                0x000000000010a2a0       0x5c obj/lfdemod.o
                0x000000000010a2a0                removeSignalOffset
 .text.getHiLo  0x000000000010a2fc       0x58 obj/lfdemod.o
                0x000000000010a2fc                getHiLo
 .text.removeParity
                0x000000000010a354       0x9a obj/lfdemod.o
                0x000000000010a354                removeParity
 .text.bytebits_to_byte
                0x000000000010a3ee       0x16 obj/lfdemod.o
                0x000000000010a3ee                bytebits_to_byte
 .text.preambleSearchEx
                0x000000000010a404       0x8c obj/lfdemod.o
                0x000000000010a404                preambleSearchEx
 .text.preambleSearch
                0x000000000010a490       0x14 obj/lfdemod.o
                0x000000000010a490                preambleSearch
 .text.getNextLow
                0x000000000010a4a4       0x1a obj/lfdemod.o
                0x000000000010a4a4                getNextLow
 .text.getNextHigh
                0x000000000010a4be       0x1a obj/lfdemod.o
                0x000000000010a4be                getNextHigh
 .text.askAmp   0x000000000010a4d8       0x32 obj/lfdemod.o
                0x000000000010a4d8                askAmp
 .text.manchesterEncode2Bytes
                0x000000000010a50a       0x24 obj/lfdemod.o
                0x000000000010a50a                manchesterEncode2Bytes
 .text.manchesterEncodeUint32
                0x000000000010a52e       0x46 obj/lfdemod.o
                0x000000000010a52e                manchesterEncodeUint32
 .text.DetectCleanAskWave
                0x000000000010a574       0x60 obj/lfdemod.o
                0x000000000010a574                DetectCleanAskWave
 .text.DetectStrongAskClock
                0x000000000010a5d4      0x14c obj/lfdemod.o
                0x000000000010a5d4                DetectStrongAskClock
 .text.DetectASKClock
                0x000000000010a720      0x314 obj/lfdemod.o
                0x000000000010a720                DetectASKClock
 .text.manrawdecode
                0x000000000010aa34       0xd8 obj/lfdemod.o
                0x000000000010aa34                manrawdecode
 .text.askdemod_ext
                0x000000000010ab0c      0x420 obj/lfdemod.o
                0x000000000010ab0c                askdemod_ext
 .text.askdemod
                0x000000000010af2c       0x28 obj/lfdemod.o
                0x000000000010af2c                askdemod
 .text.fskdemod
                0x000000000010af54      0x2b0 obj/lfdemod.o
                0x000000000010af54                fskdemod
 .text.detectAWID
                0x000000000010b204       0x80 obj/lfdemod.o
                0x000000000010b204                detectAWID
 .text.Em410xDecode
                0x000000000010b284      0x1cc obj/lfdemod.o
                0x000000000010b284                Em410xDecode
 .text.HIDdemodFSK
                0x000000000010b450       0xe0 obj/lfdemod.o
                0x000000000010b450                HIDdemodFSK
 .text.detectIOProx
                0x000000000010b530       0xb4 obj/lfdemod.o
                0x000000000010b530                detectIOProx
 .text.lf_count_edge_periods_ex
                0x000000000010b5e4      0x100 obj/lfadc.o
 .text.lf_sample_mean
                0x000000000010b6e4       0x5c obj/lfadc.o
                0x000000000010b6e4                lf_sample_mean
 .text.lf_count_edge_periods
                0x000000000010b740       0x10 obj/lfadc.o
                0x000000000010b740                lf_count_edge_periods
 .text.lf_get_tag_modulation
                0x000000000010b750       0x10 obj/lfadc.o
                0x000000000010b750                lf_get_tag_modulation
 .text.lf_get_reader_modulation
                0x000000000010b760        0xc obj/lfadc.o
                0x000000000010b760                lf_get_reader_modulation
 .text.lf_wait_periods
                0x000000000010b76c       0x10 obj/lfadc.o
                0x000000000010b76c                lf_wait_periods
 .text.lf_init  0x000000000010b77c       0xc8 obj/lfadc.o
                0x000000000010b77c                lf_init
 .text.lf_finalize
                0x000000000010b844       0x44 obj/lfadc.o
                0x000000000010b844                lf_finalize
 .text.lf_modulation
                0x000000000010b888       0x20 obj/lfadc.o
                0x000000000010b888                lf_modulation
 .text.lf_manchester_send_bit
                0x000000000010b8a8       0x26 obj/lfadc.o
 *fill*         0x000000000010b8ce        0x2 
 .text.lf_manchester_send_bytes
                0x000000000010b8d0       0x74 obj/lfadc.o
                0x000000000010b8d0                lf_manchester_send_bytes
 .text.LZ4_wildCopy8
                0x000000000010b944       0x20 obj/lz4.o
 .text.LZ4_decompress_generic
                0x000000000010b964      0x460 obj/lz4.o
                0x000000000010b964                LZ4_decompress_generic
 .text.LZ4_decompress_safe
                0x000000000010bdc4       0x20 obj/lz4.o
                0x000000000010bdc4                LZ4_decompress_safe
 .text.LZ4_decompress_safe_withPrefix64k
                0x000000000010bde4       0x28 obj/lz4.o
                0x000000000010bde4                LZ4_decompress_safe_withPrefix64k
 .text.LZ4_decompress_safe_forceExtDict
                0x000000000010be0c       0x26 obj/lz4.o
                0x000000000010be0c                LZ4_decompress_safe_forceExtDict
 .text.LZ4_setStreamDecode
                0x000000000010be32       0x10 obj/lz4.o
                0x000000000010be32                LZ4_setStreamDecode
 *fill*         0x000000000010be42        0x2 
 .text.LZ4_decompress_safe_continue
                0x000000000010be44       0x90 obj/lz4.o
                0x000000000010be44                LZ4_decompress_safe_continue
 .text.init_reader
                0x000000000010bed4       0x7c obj/legicrf.o
 .text.tx_frame
                0x000000000010bf50       0xe4 obj/legicrf.o
 .text.init_card.constprop.0
                0x000000000010c034       0x5c obj/legicrf.o
 .text.rx_bit   0x000000000010c090       0x84 obj/legicrf.o
 .text.rx_frame
                0x000000000010c114       0x84 obj/legicrf.o
 .text.setup_phase
                0x000000000010c198       0x70 obj/legicrf.o
 .text.read_byte
                0x000000000010c208       0xa8 obj/legicrf.o
 .text.LegicRfInfo
                0x000000000010c2b0       0x88 obj/legicrf.o
                0x000000000010c2b0                LegicRfInfo
 .text.LegicRfReader
                0x000000000010c338       0xa0 obj/legicrf.o
                0x000000000010c338                LegicRfReader
 .text.LegicRfWriter
                0x000000000010c3d8      0x1bc obj/legicrf.o
                0x000000000010c3d8                LegicRfWriter
 .text.LegicRfSetThreshold
                0x000000000010c594        0xc obj/legicrf.o
                0x000000000010c594                LegicRfSetThreshold
 .text.wait_for
                0x000000000010c5a0       0x44 obj/legicrfsim.o
 .text.tx_bit   0x000000000010c5e4       0x58 obj/legicrfsim.o
 .text.tx_frame
                0x000000000010c63c       0x8c obj/legicrfsim.o
 .text.rx_frame
                0x000000000010c6c8      0x110 obj/legicrfsim.o
 .text.LegicRfSimulate
                0x000000000010c7d8      0x374 obj/legicrfsim.o
                0x000000000010c7d8                LegicRfSimulate
 .text.legic_prng_forward.part.0
                0x000000000010cb4c       0x50 obj/legic_prng.o
 .text.legic_prng_init
                0x000000000010cb9c       0x1c obj/legic_prng.o
                0x000000000010cb9c                legic_prng_init
 .text.legic_prng_forward
                0x000000000010cbb8       0x10 obj/legic_prng.o
                0x000000000010cbb8                legic_prng_forward
 .text.legic_prng_get_bit
                0x000000000010cbc8       0x34 obj/legic_prng.o
                0x000000000010cbc8                legic_prng_get_bit
 .text.FlashmemSetSpiBaudrate
                0x000000000010cbfc       0x28 obj/flashmem.o
                0x000000000010cbfc                FlashmemSetSpiBaudrate
 .text.FlashStop
                0x000000000010cc24       0x3c obj/flashmem.o
                0x000000000010cc24                FlashStop
 .text.FlashSetup
                0x000000000010cc60       0xa4 obj/flashmem.o
                0x000000000010cc60                FlashSetup
 .text.FlashSendByte
                0x000000000010cd04       0x18 obj/flashmem.o
                0x000000000010cd04                FlashSendByte
 .text.Flash_TransferAdresse
                0x000000000010cd1c       0x24 obj/flashmem.o
                0x000000000010cd1c                Flash_TransferAdresse
 .text.Flash_ReadDataCont.part.0
                0x000000000010cd40       0x64 obj/flashmem.o
 .text.Flash_ReadDataCont
                0x000000000010cda4       0x14 obj/flashmem.o
                0x000000000010cda4                Flash_ReadDataCont
 .text.Flash_ReadStat1
                0x000000000010cdb8       0x1c obj/flashmem.o
                0x000000000010cdb8                Flash_ReadStat1
 .text.Flash_CheckBusy
                0x000000000010cdd4       0x4c obj/flashmem.o
                0x000000000010cdd4                Flash_CheckBusy
 .text.Flash_ReadID
                0x000000000010ce20       0x74 obj/flashmem.o
                0x000000000010ce20                Flash_ReadID
 .text.FlashDetect
                0x000000000010ce94       0xb4 obj/flashmem.o
                0x000000000010ce94                FlashDetect
 .text.FlashInit
                0x000000000010cf48       0x40 obj/flashmem.o
                0x000000000010cf48                FlashInit
 .text.Flashmem_print_info
                0x000000000010cf88       0xe8 obj/flashmem.o
                0x000000000010cf88                Flashmem_print_info
 .text.Flash_ReadData
                0x000000000010d070       0x84 obj/flashmem.o
                0x000000000010d070                Flash_ReadData
 .text.Flash_UniqueID
                0x000000000010d0f4       0x7c obj/flashmem.o
                0x000000000010d0f4                Flash_UniqueID
 .text.Flashmem_print_status
                0x000000000010d170      0x100 obj/flashmem.o
                0x000000000010d170                Flashmem_print_status
 .text.FlashSendLastByte
                0x000000000010d270       0x12 obj/flashmem.o
                0x000000000010d270                FlashSendLastByte
 *fill*         0x000000000010d282        0x2 
 .text.Flash_WriteDataCont
                0x000000000010d284       0x84 obj/flashmem.o
                0x000000000010d284                Flash_WriteDataCont
 .text.Flash_WriteEnable
                0x000000000010d308       0x24 obj/flashmem.o
                0x000000000010d308                Flash_WriteEnable
 .text.Flash_Write
                0x000000000010d32c       0x68 obj/flashmem.o
                0x000000000010d32c                Flash_Write
 .text.Flash_Erase4k
                0x000000000010d394       0x3c obj/flashmem.o
                0x000000000010d394                Flash_Erase4k
 .text.Flash_Erase64k
                0x000000000010d3d0       0x34 obj/flashmem.o
                0x000000000010d3d0                Flash_Erase64k
 .text.Flash_WipeMemoryPage
                0x000000000010d404       0x48 obj/flashmem.o
                0x000000000010d404                Flash_WipeMemoryPage
 .text.Flash_WipeMemory
                0x000000000010d44c       0x5c obj/flashmem.o
                0x000000000010d44c                Flash_WipeMemory
 .text.I2CSpinDelayClk
                0x000000000010d4a8       0x40 obj/i2c.o
 .text.WaitSCL_H
                0x000000000010d4e8       0x2c obj/i2c.o
 .text.I2C_Start
                0x000000000010d514       0x60 obj/i2c.o
 .text.I2C_SendByte
                0x000000000010d574       0x60 obj/i2c.o
 .text.I2C_WaitAck
                0x000000000010d5d4       0x60 obj/i2c.o
 .text.I2C_Stop
                0x000000000010d634       0x5c obj/i2c.o
 .text.I2C_Ack  0x000000000010d690       0x4c obj/i2c.o
 .text.I2C_ReadByte
                0x000000000010d6dc       0x90 obj/i2c.o
 .text.I2C_NoAck
                0x000000000010d76c       0x4c obj/i2c.o
 .text.I2C_WaitForSim
                0x000000000010d7b8       0x54 obj/i2c.o
 .text.I2C_recovery
                0x000000000010d80c       0xb0 obj/i2c.o
                0x000000000010d80c                I2C_recovery
 .text.I2C_init
                0x000000000010d8bc       0x50 obj/i2c.o
                0x000000000010d8bc                I2C_init
 .text.I2C_SetResetStatus
                0x000000000010d90c       0x4c obj/i2c.o
                0x000000000010d90c                I2C_SetResetStatus
 .text.I2C_Reset_EnterMainProgram
                0x000000000010d958       0x42 obj/i2c.o
                0x000000000010d958                I2C_Reset_EnterMainProgram
 .text.I2C_Reset_EnterBootloader
                0x000000000010d99a       0x32 obj/i2c.o
                0x000000000010d99a                I2C_Reset_EnterBootloader
 .text.I2C_WriteCmd
                0x000000000010d9cc       0x5c obj/i2c.o
                0x000000000010d9cc                I2C_WriteCmd
 .text.I2C_WriteByte
                0x000000000010da28       0x6c obj/i2c.o
                0x000000000010da28                I2C_WriteByte
 .text.I2C_BufferWrite
                0x000000000010da94       0x7c obj/i2c.o
                0x000000000010da94                I2C_BufferWrite
 .text.I2C_BufferRead
                0x000000000010db10       0xf8 obj/i2c.o
                0x000000000010db10                I2C_BufferRead
 .text.I2C_ReadFW
                0x000000000010dc08       0xb4 obj/i2c.o
                0x000000000010dc08                I2C_ReadFW
 .text.I2C_WriteFW
                0x000000000010dcbc       0x90 obj/i2c.o
                0x000000000010dcbc                I2C_WriteFW
 .text.I2C_get_version
                0x000000000010dd4c       0x3c obj/i2c.o
                0x000000000010dd4c                I2C_get_version
 .text.I2C_print_status
                0x000000000010dd88       0x54 obj/i2c.o
                0x000000000010dd88                I2C_print_status
 .text.sc_rx_bytes
                0x000000000010dddc       0x50 obj/i2c.o
                0x000000000010dddc                sc_rx_bytes
 .text.GetATR.part.0
                0x000000000010de2c       0xf0 obj/i2c.o
 .text.SmartCardAtr
                0x000000000010df1c       0x50 obj/i2c.o
                0x000000000010df1c                SmartCardAtr
 .text.SmartCardRaw
                0x000000000010df6c      0x164 obj/i2c.o
                0x000000000010df6c                SmartCardRaw
 .text.SmartCardUpgrade
                0x000000000010e0d0      0x100 obj/i2c.o
                0x000000000010e0d0                SmartCardUpgrade
 .text.SmartCardSetBaud
                0x000000000010e1d0        0x2 obj/i2c.o
                0x000000000010e1d0                SmartCardSetBaud
 *fill*         0x000000000010e1d2        0x2 
 .text.SmartCardSetClock
                0x000000000010e1d4       0x48 obj/i2c.o
                0x000000000010e1d4                SmartCardSetClock
 .text.ht2_f20  0x000000000010e21c      0x124 obj/hitag2_crypto.o
 .text.ht2_hitag2_init
                0x000000000010e340       0x6a obj/hitag2_crypto.o
                0x000000000010e340                ht2_hitag2_init
 .text.ht2_hitag2_bit
                0x000000000010e3aa       0x9a obj/hitag2_crypto.o
                0x000000000010e3aa                ht2_hitag2_bit
 .text.ht2_hitag2_byte
                0x000000000010e444       0x6a obj/hitag2_crypto.o
                0x000000000010e444                ht2_hitag2_byte
 .text.ht2_hitag2_cipher_transcrypt
                0x000000000010e4ae       0x4c obj/hitag2_crypto.o
                0x000000000010e4ae                ht2_hitag2_cipher_transcrypt
 .text.hitag_crc
                0x000000000010e4fa       0x44 obj/hitag2.o
 *fill*         0x000000000010e53e        0x2 
 .text.hitag2_write_page
                0x000000000010e540       0xf8 obj/hitag2.o
 .text.hitag2_password
                0x000000000010e638      0x130 obj/hitag2.o
 .text.hitag2_crypto
                0x000000000010e768      0x8a4 obj/hitag2.o
 .text.hitag_reader_send_bit
                0x000000000010f00c       0x32 obj/hitag2.o
 *fill*         0x000000000010f03e        0x2 
 .text.hitag_reader_send_frame
                0x000000000010f040       0x5c obj/hitag2.o
 .text.ht2_receive.constprop.0
                0x000000000010f09c       0x98 obj/hitag2.o
 .text.SniffHitag2
                0x000000000010f134      0x318 obj/hitag2.o
                0x000000000010f134                SniffHitag2
 .text.SimulateHitag2
                0x000000000010f44c      0x320 obj/hitag2.o
                0x000000000010f44c                SimulateHitag2
 .text.ReaderHitag
                0x000000000010f76c      0xd78 obj/hitag2.o
                0x000000000010f76c                ReaderHitag
 .text.WriterHitag
                0x00000000001104e4      0x54c obj/hitag2.o
                0x00000000001104e4                WriterHitag
 .text.ht2_packbits
                0x0000000000110a30       0x68 obj/hitag2.o
                0x0000000000110a30                ht2_packbits
 .text.ht2_read_uid
                0x0000000000110a98      0x17c obj/hitag2.o
                0x0000000000110a98                ht2_read_uid
 .text.ht2_tx_rx
                0x0000000000110c14       0xb8 obj/hitag2.o
                0x0000000000110c14                ht2_tx_rx
 .text.update_tag_max_page
                0x0000000000110ccc       0x3c obj/hitagS.o
 .text.hitag_send_bit
                0x0000000000110d08      0x1a0 obj/hitagS.o
 .text.hts_stop_clock
                0x0000000000110ea8       0x1c obj/hitagS.o
 .text.hts_init_clock
                0x0000000000110ec4       0x68 obj/hitagS.o
 .text.hts_set_frame_modulation
                0x0000000000110f2c       0x5c obj/hitagS.o
 .text.hts_send_receive.constprop.0
                0x0000000000110f88      0x584 obj/hitagS.o
 .text.hts_select_tag.constprop.0
                0x000000000011150c     0x1268 obj/hitagS.o
 .text.calc_crc.constprop.0
                0x0000000000112774       0x26 obj/hitagS.o
 *fill*         0x000000000011279a        0x2 
 .text.hts_simulate
                0x000000000011279c     0x1020 obj/hitagS.o
                0x000000000011279c                hts_simulate
 .text.hts_read
                0x00000000001137bc      0x2c4 obj/hitagS.o
                0x00000000001137bc                hts_read
 .text.hts_write_page
                0x0000000000113a80      0x1b0 obj/hitagS.o
                0x0000000000113a80                hts_write_page
 .text.hts_read_uid
                0x0000000000113c30      0x138 obj/hitagS.o
                0x0000000000113c30                hts_read_uid
 .text.hts_check_challenges
                0x0000000000113d68      0x120 obj/hitagS.o
                0x0000000000113d68                hts_check_challenges
 .text.hitag2crack_xor
                0x0000000000113e88       0x18 obj/hitag2_crack.o
 .text.hitag2crack_send_e_cmd
                0x0000000000113ea0       0x62 obj/hitag2_crack.o
 .text.hitag2crack_find_valid_e_cmd
                0x0000000000113f02       0xa4 obj/hitag2_crack.o
 *fill*         0x0000000000113fa6        0x2 
 .text.hitag2crack_find_e_page0_cmd
                0x0000000000113fa8      0x19c obj/hitag2_crack.o
 .text.ht2_crack1
                0x0000000000114144      0x164 obj/hitag2_crack.o
                0x0000000000114144                ht2_crack1
 .text.ht2_crack2
                0x00000000001142a8      0x230 obj/hitag2_crack.o
                0x00000000001142a8                ht2_crack2
 .text.em4x50_sim_send_bit
                0x00000000001144d8       0x78 obj/em4x50.o
 .text.wait_cycles
                0x0000000000114550       0x3c obj/em4x50.o
 .text.em4x50_sim_send_ack
                0x000000000011458c       0x60 obj/em4x50.o
 .text.em4x50_sim_send_nak
                0x00000000001145ec       0x68 obj/em4x50.o
 .text.invalid_bit
                0x0000000000114654       0x3c obj/em4x50.o
 .text.get_pulse_length
                0x0000000000114690       0x90 obj/em4x50.o
 .text.find_single_listen_window
                0x0000000000114720       0x38 obj/em4x50.o
 .text.get_word_from_bitstream
                0x0000000000114758      0x1f8 obj/em4x50.o
 .text.em4x50_reader_send_bit
                0x0000000000114950       0x6c obj/em4x50.o
 .text.find_double_listen_window
                0x00000000001149bc       0x84 obj/em4x50.o
 .text.em4x50_reader_send_byte_with_parity
                0x0000000000114a40       0x28 obj/em4x50.o
 .text.em4x50_reader_send_word
                0x0000000000114a68       0x52 obj/em4x50.o
 *fill*         0x0000000000114aba        0x2 
 .text.check_ack
                0x0000000000114abc       0x6c obj/em4x50.o
 .text.em4x50_sim_read_bit
                0x0000000000114b28       0x88 obj/em4x50.o
 .text.get_signalproperties
                0x0000000000114bb0       0xd0 obj/em4x50.o
 .text.em4x50_sim_read_byte
                0x0000000000114c80       0x48 obj/em4x50.o
 .text.login    0x0000000000114cc8       0x50 obj/em4x50.o
 .text.em4x50_sim_read_word.constprop.0
                0x0000000000114d18       0x78 obj/em4x50.o
 .text.em4x50_sim_send_listen_window.isra.0
                0x0000000000114d90       0x98 obj/em4x50.o
 .text.em4x50_sim_send_word
                0x0000000000114e28       0x86 obj/em4x50.o
 *fill*         0x0000000000114eae        0x2 
 .text.em4x50_setup_read
                0x0000000000114eb0       0x58 obj/em4x50.o
                0x0000000000114eb0                em4x50_setup_read
 .text.em4x50_setup_sim
                0x0000000000114f08       0x48 obj/em4x50.o
                0x0000000000114f08                em4x50_setup_sim
 .text.em4x50_login
                0x0000000000114f50       0x7c obj/em4x50.o
                0x0000000000114f50                em4x50_login
 .text.em4x50_brute
                0x0000000000114fcc      0x17c obj/em4x50.o
                0x0000000000114fcc                em4x50_brute
 .text.em4x50_chk
                0x0000000000115148      0x108 obj/em4x50.o
                0x0000000000115148                em4x50_chk
 .text.standard_read
                0x0000000000115250       0x50 obj/em4x50.o
                0x0000000000115250                standard_read
 .text.selective_read
                0x00000000001152a0       0x58 obj/em4x50.o
 .text.em4x50_read
                0x00000000001152f8       0xc8 obj/em4x50.o
                0x00000000001152f8                em4x50_read
 .text.em4x50_info
                0x00000000001153c0       0xb0 obj/em4x50.o
                0x00000000001153c0                em4x50_info
 .text.em4x50_reader
                0x0000000000115470       0x8c obj/em4x50.o
                0x0000000000115470                em4x50_reader
 .text.em4x50_write
                0x00000000001154fc      0x1d8 obj/em4x50.o
                0x00000000001154fc                em4x50_write
 .text.em4x50_writepwd
                0x00000000001156d4      0x150 obj/em4x50.o
                0x00000000001156d4                em4x50_writepwd
 .text.em4x50_handle_commands
                0x0000000000115824      0x39c obj/em4x50.o
                0x0000000000115824                em4x50_handle_commands
 .text.em4x50_sim
                0x0000000000115bc0       0xc0 obj/em4x50.o
                0x0000000000115bc0                em4x50_sim
 .text.smart_generator_byte_repeat
                0x0000000000115c80       0x44 obj/bruteforce.o
                0x0000000000115c80                smart_generator_byte_repeat
 .text.smart_generator_msb_byte_only
                0x0000000000115cc4       0x2a obj/bruteforce.o
                0x0000000000115cc4                smart_generator_msb_byte_only
 .text.smart_generator_nibble_sequence
                0x0000000000115cee       0x9e obj/bruteforce.o
                0x0000000000115cee                smart_generator_nibble_sequence
 .text.bf_generator_init
                0x0000000000115d8c       0x1a obj/bruteforce.o
                0x0000000000115d8c                bf_generator_init
 *fill*         0x0000000000115da6        0x2 
 .text.bf_generator_set_charset
                0x0000000000115da8       0x58 obj/bruteforce.o
                0x0000000000115da8                bf_generator_set_charset
 .text.bf_array_increment
                0x0000000000115e00       0x54 obj/bruteforce.o
                0x0000000000115e00                bf_array_increment
 .text.bf_get_key32
                0x0000000000115e54        0x4 obj/bruteforce.o
                0x0000000000115e54                bf_get_key32
 .text.bf_generator_clear
                0x0000000000115e58       0x10 obj/bruteforce.o
                0x0000000000115e58                bf_generator_clear
 .text._bf_generate_mode_range
                0x0000000000115e68       0x4e obj/bruteforce.o
                0x0000000000115e68                _bf_generate_mode_range
 .text._bf_generate_mode_charset
                0x0000000000115eb6       0x70 obj/bruteforce.o
                0x0000000000115eb6                _bf_generate_mode_charset
 *fill*         0x0000000000115f26        0x2 
 .text._bf_generate_mode_smart
                0x0000000000115f28       0x44 obj/bruteforce.o
                0x0000000000115f28                _bf_generate_mode_smart
 .text.bf_generate
                0x0000000000115f6c       0x2c obj/bruteforce.o
                0x0000000000115f6c                bf_generate
 .text.init_tag
                0x0000000000115f98       0x18 obj/em4x70.o
 .text.em4x70_setup_read
                0x0000000000115fb0       0x58 obj/em4x70.o
 .text.get_signalproperties
                0x0000000000116008       0x2c obj/em4x70.o
 .text.get_rising_pulse_length
                0x0000000000116034       0x6c obj/em4x70.o
 .text.get_falling_pulse_length
                0x00000000001160a0       0x6c obj/em4x70.o
 .text.em4x70_send_bit
                0x000000000011610c       0x68 obj/em4x70.o
 .text.find_listen_window
                0x0000000000116174       0x70 obj/em4x70.o
 .text.find_em4x70_tag
                0x00000000001161e4        0xe obj/em4x70.o
 *fill*         0x00000000001161f2        0x2 
 .text.em4x70_send_nibble
                0x00000000001161f4       0x40 obj/em4x70.o
 .text.em4x70_send_byte
                0x0000000000116234       0x1c obj/em4x70.o
 .text.set_byte
                0x0000000000116250       0x1e obj/em4x70.o
 *fill*         0x000000000011626e        0x2 
 .text.check_ack
                0x0000000000116270       0x28 obj/em4x70.o
 .text.write    0x0000000000116298       0x9c obj/em4x70.o
 .text.encoded_bit_array_to_bytes
                0x0000000000116334       0x50 obj/em4x70.o
 .text.em4x70_receive
                0x0000000000116384       0xd4 obj/em4x70.o
 .text.send_command_and_read
                0x0000000000116458       0x6c obj/em4x70.o
 .text.em4x70_read_id
                0x00000000001164c4       0x18 obj/em4x70.o
 .text.em4x70_read_um1
                0x00000000001164dc       0x18 obj/em4x70.o
 .text.em4x70_read_um2
                0x00000000001164f4       0x18 obj/em4x70.o
 .text.send_pin
                0x000000000011650c       0xa4 obj/em4x70.o
 .text.authenticate
                0x00000000001165b0       0x9c obj/em4x70.o
 .text.em4x70_info
                0x000000000011664c       0x70 obj/em4x70.o
                0x000000000011664c                em4x70_info
 .text.em4x70_write
                0x00000000001166bc       0x88 obj/em4x70.o
                0x00000000001166bc                em4x70_write
 .text.em4x70_unlock
                0x0000000000116744       0x70 obj/em4x70.o
                0x0000000000116744                em4x70_unlock
 .text.em4x70_auth
                0x00000000001167b4       0x94 obj/em4x70.o
                0x00000000001167b4                em4x70_auth
 .text.em4x70_brute
                0x0000000000116848      0x21c obj/em4x70.o
                0x0000000000116848                em4x70_brute
 .text.em4x70_write_pin
                0x0000000000116a64       0xa8 obj/em4x70.o
                0x0000000000116a64                em4x70_write_pin
 .text.em4x70_write_key
                0x0000000000116b0c       0xa0 obj/em4x70.o
                0x0000000000116b0c                em4x70_write_key
 .text.rdv40_spiffs_llerase
                0x0000000000116bac       0x98 obj/spiffs.o
 .text.rdv40_spiffs_llwrite
                0x0000000000116c44       0x28 obj/spiffs.o
 .text.rdv40_spiffs_llread
                0x0000000000116c6c       0x1a obj/spiffs.o
 *fill*         0x0000000000116c86        0x2 
 .text.remove_from_spiffs
                0x0000000000116c88       0x2c obj/spiffs.o
 .text.rdv40_spiffs_mount
                0x0000000000116cb4       0x78 obj/spiffs.o
                0x0000000000116cb4                rdv40_spiffs_mount
 .text.rdv40_spiffs_unmount
                0x0000000000116d2c       0x48 obj/spiffs.o
                0x0000000000116d2c                rdv40_spiffs_unmount
 .text.write_to_spiffs
                0x0000000000116d74       0x4c obj/spiffs.o
                0x0000000000116d74                write_to_spiffs
 .text.append_to_spiffs
                0x0000000000116dc0       0x4c obj/spiffs.o
                0x0000000000116dc0                append_to_spiffs
 .text.read_from_spiffs
                0x0000000000116e0c       0x4c obj/spiffs.o
                0x0000000000116e0c                read_from_spiffs
 .text.size_in_spiffs
                0x0000000000116e58       0x38 obj/spiffs.o
                0x0000000000116e58                size_in_spiffs
 .text.exists_in_spiffs
                0x0000000000116e90       0x1c obj/spiffs.o
                0x0000000000116e90                exists_in_spiffs
 .text.rdv40_spiffs_lazy_mount
                0x0000000000116eac       0x20 obj/spiffs.o
                0x0000000000116eac                rdv40_spiffs_lazy_mount
 .text.rdv40_spiffs_lazy_unmount
                0x0000000000116ecc       0x20 obj/spiffs.o
                0x0000000000116ecc                rdv40_spiffs_lazy_unmount
 .text.rdv40_spiffs_check
                0x0000000000116eec       0x38 obj/spiffs.o
                0x0000000000116eec                rdv40_spiffs_check
 .text.rdv40_spiffs_lazy_mount_rollback
                0x0000000000116f24       0x24 obj/spiffs.o
                0x0000000000116f24                rdv40_spiffs_lazy_mount_rollback
 .text.rdv40_spiffs_write
                0x0000000000116f48       0xa8 obj/spiffs.o
                0x0000000000116f48                rdv40_spiffs_write
 .text.rdv40_spiffs_append
                0x0000000000116ff0       0x78 obj/spiffs.o
                0x0000000000116ff0                rdv40_spiffs_append
 .text.rdv40_spiffs_read
                0x0000000000117068       0x36 obj/spiffs.o
                0x0000000000117068                rdv40_spiffs_read
 *fill*         0x000000000011709e        0x2 
 .text.rdv40_spiffs_rename
                0x00000000001170a0       0x50 obj/spiffs.o
                0x00000000001170a0                rdv40_spiffs_rename
 .text.rdv40_spiffs_remove
                0x00000000001170f0       0x2e obj/spiffs.o
                0x00000000001170f0                rdv40_spiffs_remove
 .text.rdv40_spiffs_copy
                0x000000000011711e       0x54 obj/spiffs.o
                0x000000000011711e                rdv40_spiffs_copy
 .text.rdv40_spiffs_is_symlink
                0x0000000000117172       0x3c obj/spiffs.o
                0x0000000000117172                rdv40_spiffs_is_symlink
 *fill*         0x00000000001171ae        0x2 
 .text.rdv40_spiffs_read_as_symlink
                0x00000000001171b0       0x80 obj/spiffs.o
                0x00000000001171b0                rdv40_spiffs_read_as_symlink
 .text.rdv40_spiffs_make_symlink
                0x0000000000117230       0x48 obj/spiffs.o
                0x0000000000117230                rdv40_spiffs_make_symlink
 .text.rdv40_spiffs_read_as_filetype
                0x0000000000117278       0xc4 obj/spiffs.o
                0x0000000000117278                rdv40_spiffs_read_as_filetype
 .text.rdv40_spiffs_safe_print_fsinfo
                0x000000000011733c       0xe0 obj/spiffs.o
                0x000000000011733c                rdv40_spiffs_safe_print_fsinfo
 .text.rdv40_spiffs_safe_print_tree
                0x000000000011741c       0xc8 obj/spiffs.o
                0x000000000011741c                rdv40_spiffs_safe_print_tree
 .text.rdv40_spiffs_safe_wipe
                0x00000000001174e4       0x88 obj/spiffs.o
                0x00000000001174e4                rdv40_spiffs_safe_wipe
 .text.test_spiffs
                0x000000000011756c       0xb8 obj/spiffs.o
                0x000000000011756c                test_spiffs
 .text.spiffs_cache_page_free
                0x0000000000117624       0x5a obj/spiffs_cache.o
 .text.spiffs_cache_page_remove_oldest.constprop.0
                0x000000000011767e       0x5e obj/spiffs_cache.o
 .text.spiffs_cache_page_allocate.isra.0
                0x00000000001176dc       0x3c obj/spiffs_cache.o
 .text.spiffs_cache_page_get.isra.0
                0x0000000000117718       0x4e obj/spiffs_cache.o
 .text.spiffs_cache_drop_page
                0x0000000000117766       0x1e obj/spiffs_cache.o
                0x0000000000117766                spiffs_cache_drop_page
 .text.spiffs_phys_rd
                0x0000000000117784       0xd4 obj/spiffs_cache.o
                0x0000000000117784                spiffs_phys_rd
 .text.spiffs_phys_wr
                0x0000000000117858       0x74 obj/spiffs_cache.o
                0x0000000000117858                spiffs_phys_wr
 .text.spiffs_cache_page_get_by_fd
                0x00000000001178cc       0x4e obj/spiffs_cache.o
                0x00000000001178cc                spiffs_cache_page_get_by_fd
 .text.spiffs_cache_page_allocate_by_fd
                0x000000000011791a       0x24 obj/spiffs_cache.o
                0x000000000011791a                spiffs_cache_page_allocate_by_fd
 .text.spiffs_cache_fd_release
                0x000000000011793e       0x3c obj/spiffs_cache.o
                0x000000000011793e                spiffs_cache_fd_release
 .text.spiffs_cache_init
                0x000000000011797a       0x8e obj/spiffs_cache.o
                0x000000000011797a                spiffs_cache_init
 .text.spiffs_object_get_data_page_index_reference
                0x0000000000117a08       0x80 obj/spiffs_check.o
 .text.spiffs_delete_obj_lazy
                0x0000000000117a88       0x4c obj/spiffs_check.o
 .text.spiffs_rewrite_index
                0x0000000000117ad4      0x160 obj/spiffs_check.o
 .text.spiffs_rewrite_page
                0x0000000000117c34       0x44 obj/spiffs_check.o
 .text.spiffs_lookup_check_v
                0x0000000000117c78      0x5d8 obj/spiffs_check.o
 .text.spiffs_object_index_consistency_check_v
                0x0000000000118250      0x18c obj/spiffs_check.o
 .text.spiffs_lookup_consistency_check
                0x00000000001183dc       0x80 obj/spiffs_check.o
                0x00000000001183dc                spiffs_lookup_consistency_check
 .text.spiffs_page_consistency_check
                0x000000000011845c      0x634 obj/spiffs_check.o
                0x000000000011845c                spiffs_page_consistency_check
 .text.spiffs_object_index_consistency_check
                0x0000000000118a90       0x90 obj/spiffs_check.o
                0x0000000000118a90                spiffs_object_index_consistency_check
 .text.spiffs_gc_erase_block
                0x0000000000118b20       0x34 obj/spiffs_gc.o
 .text.spiffs_gc_quick
                0x0000000000118b54       0xac obj/spiffs_gc.o
                0x0000000000118b54                spiffs_gc_quick
 .text.spiffs_gc_erase_page_stats
                0x0000000000118c00       0x58 obj/spiffs_gc.o
                0x0000000000118c00                spiffs_gc_erase_page_stats
 .text.spiffs_gc_find_candidate
                0x0000000000118c58      0x1a4 obj/spiffs_gc.o
                0x0000000000118c58                spiffs_gc_find_candidate
 .text.spiffs_gc_clean
                0x0000000000118dfc      0x44c obj/spiffs_gc.o
                0x0000000000118dfc                spiffs_gc_clean
 .text.spiffs_gc_check
                0x0000000000119248       0xe4 obj/spiffs_gc.o
                0x0000000000119248                spiffs_gc_check
 .text.spiffs_obj_lu_find_id_and_span_v
                0x000000000011932c       0x74 obj/spiffs_nucleus.o
 .text.spiffs_object_find_object_index_header_by_name_v
                0x00000000001193a0       0x68 obj/spiffs_nucleus.o
 .text.spiffs_obj_lu_find_free_obj_id_bitmap_v
                0x0000000000119408       0x9c obj/spiffs_nucleus.o
 .text.spiffs_obj_lu_scan_v
                0x00000000001194a4       0x30 obj/spiffs_nucleus.o
 .text.spiffs_obj_lu_find_free_obj_id_compact_v
                0x00000000001194d4       0x98 obj/spiffs_nucleus.o
 .text.spiffs_hash.constprop.0
                0x000000000011956c       0x28 obj/spiffs_nucleus.o
 .text.spiffs_page_index_check.constprop.0
                0x0000000000119594       0x3c obj/spiffs_nucleus.o
 .text.spiffs_page_data_check.constprop.0
                0x00000000001195d0       0x3c obj/spiffs_nucleus.o
 .text.spiffs_update_ix_map.constprop.0.isra.0
                0x000000000011960c       0xcc obj/spiffs_nucleus.o
 .text.spiffs_phys_cpy
                0x00000000001196d8       0x60 obj/spiffs_nucleus.o
                0x00000000001196d8                spiffs_phys_cpy
 .text.spiffs_obj_lu_find_entry_visitor
                0x0000000000119738      0x198 obj/spiffs_nucleus.o
                0x0000000000119738                spiffs_obj_lu_find_entry_visitor
 .text.spiffs_erase_block
                0x00000000001198d0       0x54 obj/spiffs_nucleus.o
                0x00000000001198d0                spiffs_erase_block
 .text.spiffs_obj_lu_scan
                0x0000000000119924       0xb8 obj/spiffs_nucleus.o
                0x0000000000119924                spiffs_obj_lu_scan
 .text.spiffs_obj_lu_find_id
                0x00000000001199dc       0x34 obj/spiffs_nucleus.o
                0x00000000001199dc                spiffs_obj_lu_find_id
 .text.spiffs_obj_lu_find_free
                0x0000000000119a10       0x78 obj/spiffs_nucleus.o
                0x0000000000119a10                spiffs_obj_lu_find_free
 .text.spiffs_obj_lu_find_id_and_span
                0x0000000000119a88       0x74 obj/spiffs_nucleus.o
                0x0000000000119a88                spiffs_obj_lu_find_id_and_span
 .text.spiffs_obj_lu_find_id_and_span_by_phdr
                0x0000000000119afc       0x74 obj/spiffs_nucleus.o
                0x0000000000119afc                spiffs_obj_lu_find_id_and_span_by_phdr
 .text.spiffs_page_allocate_data
                0x0000000000119b70      0x106 obj/spiffs_nucleus.o
                0x0000000000119b70                spiffs_page_allocate_data
 .text.spiffs_page_delete
                0x0000000000119c76       0x5e obj/spiffs_nucleus.o
                0x0000000000119c76                spiffs_page_delete
 .text.spiffs_page_move
                0x0000000000119cd4       0xfc obj/spiffs_nucleus.o
                0x0000000000119cd4                spiffs_page_move
 .text.spiffs_cb_object_event
                0x0000000000119dd0      0x160 obj/spiffs_nucleus.o
                0x0000000000119dd0                spiffs_cb_object_event
 .text.spiffs_object_create
                0x0000000000119f30       0xfc obj/spiffs_nucleus.o
                0x0000000000119f30                spiffs_object_create
 .text.spiffs_object_update_index_hdr
                0x000000000011a02c      0x100 obj/spiffs_nucleus.o
                0x000000000011a02c                spiffs_object_update_index_hdr
 .text.spiffs_object_open_by_page
                0x000000000011a12c       0xb0 obj/spiffs_nucleus.o
                0x000000000011a12c                spiffs_object_open_by_page
 .text.spiffs_object_append
                0x000000000011a1dc      0x570 obj/spiffs_nucleus.o
                0x000000000011a1dc                spiffs_object_append
 .text.spiffs_object_modify
                0x000000000011a74c      0x490 obj/spiffs_nucleus.o
                0x000000000011a74c                spiffs_object_modify
 .text.spiffs_object_find_object_index_header_by_name
                0x000000000011abdc       0x60 obj/spiffs_nucleus.o
                0x000000000011abdc                spiffs_object_find_object_index_header_by_name
 .text.spiffs_object_truncate
                0x000000000011ac3c      0x4b0 obj/spiffs_nucleus.o
                0x000000000011ac3c                spiffs_object_truncate
 .text.spiffs_object_read
                0x000000000011b0ec      0x1f4 obj/spiffs_nucleus.o
                0x000000000011b0ec                spiffs_object_read
 .text.spiffs_obj_lu_find_free_obj_id
                0x000000000011b2e0      0x170 obj/spiffs_nucleus.o
                0x000000000011b2e0                spiffs_obj_lu_find_free_obj_id
 .text.spiffs_fd_find_new
                0x000000000011b450       0xe4 obj/spiffs_nucleus.o
                0x000000000011b450                spiffs_fd_find_new
 .text.spiffs_fd_return
                0x000000000011b534       0x38 obj/spiffs_nucleus.o
                0x000000000011b534                spiffs_fd_return
 .text.spiffs_fd_get
                0x000000000011b56c       0x44 obj/spiffs_nucleus.o
                0x000000000011b56c                spiffs_fd_get
 .text.spiffs_fd_temporal_cache_rehash
                0x000000000011b5b0       0x3a obj/spiffs_nucleus.o
                0x000000000011b5b0                spiffs_fd_temporal_cache_rehash
 .text.spiffs_stat_pix
                0x000000000011b5ea       0x84 obj/spiffs_hydrogen.o
 *fill*         0x000000000011b66e        0x2 
 .text.spiffs_read_dir_v
                0x000000000011b670       0x84 obj/spiffs_hydrogen.o
 .text.spiffs_hydro_write.constprop.0
                0x000000000011b6f4       0x56 obj/spiffs_hydrogen.o
 .text.spiffs_fflush_cache
                0x000000000011b74a       0x62 obj/spiffs_hydrogen.o
 .text.SPIFFS_mount
                0x000000000011b7ac       0xcc obj/spiffs_hydrogen.o
                0x000000000011b7ac                SPIFFS_mount
 .text.SPIFFS_unmount
                0x000000000011b878       0x50 obj/spiffs_hydrogen.o
                0x000000000011b878                SPIFFS_unmount
 .text.SPIFFS_errno
                0x000000000011b8c8        0x4 obj/spiffs_hydrogen.o
                0x000000000011b8c8                SPIFFS_errno
 .text.SPIFFS_clearerr
                0x000000000011b8cc        0x6 obj/spiffs_hydrogen.o
                0x000000000011b8cc                SPIFFS_clearerr
 *fill*         0x000000000011b8d2        0x2 
 .text.SPIFFS_open
                0x000000000011b8d4      0x124 obj/spiffs_hydrogen.o
                0x000000000011b8d4                SPIFFS_open
 .text.SPIFFS_read
                0x000000000011b9f8       0xc8 obj/spiffs_hydrogen.o
                0x000000000011b9f8                SPIFFS_read
 .text.SPIFFS_write
                0x000000000011bac0      0x194 obj/spiffs_hydrogen.o
                0x000000000011bac0                SPIFFS_write
 .text.SPIFFS_remove
                0x000000000011bc54       0xc0 obj/spiffs_hydrogen.o
                0x000000000011bc54                SPIFFS_remove
 .text.SPIFFS_stat
                0x000000000011bd14       0x68 obj/spiffs_hydrogen.o
                0x000000000011bd14                SPIFFS_stat
 .text.SPIFFS_close
                0x000000000011bd7c       0x48 obj/spiffs_hydrogen.o
                0x000000000011bd7c                SPIFFS_close
 .text.SPIFFS_rename
                0x000000000011bdc4       0xfc obj/spiffs_hydrogen.o
                0x000000000011bdc4                SPIFFS_rename
 .text.SPIFFS_opendir
                0x000000000011bec0       0x38 obj/spiffs_hydrogen.o
                0x000000000011bec0                SPIFFS_opendir
 .text.SPIFFS_readdir
                0x000000000011bef8       0x6c obj/spiffs_hydrogen.o
                0x000000000011bef8                SPIFFS_readdir
 .text.SPIFFS_closedir
                0x000000000011bf64       0x2c obj/spiffs_hydrogen.o
                0x000000000011bf64                SPIFFS_closedir
 .text.SPIFFS_check
                0x000000000011bf90       0x4c obj/spiffs_hydrogen.o
                0x000000000011bf90                SPIFFS_check
 .text.SPIFFS_info
                0x000000000011bfdc       0x54 obj/spiffs_hydrogen.o
                0x000000000011bfdc                SPIFFS_info
 .text.SPIFFS_gc_quick
                0x000000000011c030       0x3c obj/spiffs_hydrogen.o
                0x000000000011c030                SPIFFS_gc_quick
 .text.SPIFFS_gc
                0x000000000011c06c       0x3c obj/spiffs_hydrogen.o
                0x000000000011c06c                SPIFFS_gc
 .text.EncodeAddBit
                0x000000000011c0a8       0x5c obj/hfops.o
 .text.EncodeFinish
                0x000000000011c104       0x38 obj/hfops.o
 .text.HfReadADC
                0x000000000011c13c       0xf4 obj/hfops.o
                0x000000000011c13c                HfReadADC
 .text.HfSimulateTkm
                0x000000000011c230      0x29c obj/hfops.o
                0x000000000011c230                HfSimulateTkm
 .text.CodeIso14443aAsTagPar
                0x000000000011c4cc      0x10c obj/iso14443a.o
 .text.dist_nt  0x000000000011c5d8       0x54 obj/iso14443a.o
 .text.printHf14aConfig
                0x000000000011c62c      0x134 obj/iso14443a.o
                0x000000000011c62c                printHf14aConfig
 .text.setHf14aConfig
                0x000000000011c760       0x58 obj/iso14443a.o
                0x000000000011c760                setHf14aConfig
 .text.getHf14aConfig
                0x000000000011c7b8        0x8 obj/iso14443a.o
                0x000000000011c7b8                getHf14aConfig
 .text.iso14a_set_timeout
                0x000000000011c7c0        0xc obj/iso14443a.o
                0x000000000011c7c0                iso14a_set_timeout
 .text.iso14a_get_timeout
                0x000000000011c7cc        0xc obj/iso14443a.o
                0x000000000011c7cc                iso14a_get_timeout
 .text.GetParity
                0x000000000011c7d8       0x54 obj/iso14443a.o
                0x000000000011c7d8                GetParity
 .text.GetUart14a
                0x000000000011c82c        0x8 obj/iso14443a.o
                0x000000000011c82c                GetUart14a
 .text.Uart14aReset
                0x000000000011c834       0x20 obj/iso14443a.o
                0x000000000011c834                Uart14aReset
 .text.Demod14aReset
                0x000000000011c854       0x24 obj/iso14443a.o
                0x000000000011c854                Demod14aReset
 .text.GetIso14443aAnswerFromTag
                0x000000000011c878       0xe8 obj/iso14443a.o
 .text.GetIso14443aCommandFromReader
                0x000000000011c960       0xa8 obj/iso14443a.o
                0x000000000011c960                GetIso14443aCommandFromReader
 .text.prepare_tag_modulation
                0x000000000011ca08       0xc0 obj/iso14443a.o
                0x000000000011ca08                prepare_tag_modulation
 .text.prepare_allocated_tag_modulation
                0x000000000011cac8       0x3e obj/iso14443a.o
                0x000000000011cac8                prepare_allocated_tag_modulation
 *fill*         0x000000000011cb06        0x2 
 .text.SimulateIso14443aInit
                0x000000000011cb08      0x514 obj/iso14443a.o
                0x000000000011cb08                SimulateIso14443aInit
 .text.EmGetCmd
                0x000000000011d01c      0x154 obj/iso14443a.o
                0x000000000011d01c                EmGetCmd
 .text.EmSendCmd14443aRaw
                0x000000000011d170      0x130 obj/iso14443a.o
                0x000000000011d170                EmSendCmd14443aRaw
 .text.EmLogTrace
                0x000000000011d2a0       0x68 obj/iso14443a.o
                0x000000000011d2a0                EmLogTrace
 .text.EmSend4bit
                0x000000000011d308      0x124 obj/iso14443a.o
                0x000000000011d308                EmSend4bit
 .text.EmSendCmdParEx
                0x000000000011d42c       0x7c obj/iso14443a.o
                0x000000000011d42c                EmSendCmdParEx
 .text.EmSendCmdPar
                0x000000000011d4a8        0xe obj/iso14443a.o
                0x000000000011d4a8                EmSendCmdPar
 *fill*         0x000000000011d4b6        0x2 
 .text.EmSendCmdEx
                0x000000000011d4b8       0x28 obj/iso14443a.o
                0x000000000011d4b8                EmSendCmdEx
 .text.EmSendCmd
                0x000000000011d4e0        0xe obj/iso14443a.o
                0x000000000011d4e0                EmSendCmd
 *fill*         0x000000000011d4ee        0x2 
 .text.EmSendPrecompiledCmd
                0x000000000011d4f0       0xe4 obj/iso14443a.o
                0x000000000011d4f0                EmSendPrecompiledCmd
 .text.GetIso14443aAnswerFromTag_Thinfilm
                0x000000000011d5d4      0x298 obj/iso14443a.o
                0x000000000011d5d4                GetIso14443aAnswerFromTag_Thinfilm
 .text.ReaderTransmitBitsPar
                0x000000000011d86c      0x2e4 obj/iso14443a.o
                0x000000000011d86c                ReaderTransmitBitsPar
 .text.ReaderTransmitPar
                0x000000000011db50       0x10 obj/iso14443a.o
                0x000000000011db50                ReaderTransmitPar
 .text.ReaderTransmit
                0x000000000011db60       0x28 obj/iso14443a.o
                0x000000000011db60                ReaderTransmit
 .text.ReaderReceive
                0x000000000011db88       0x44 obj/iso14443a.o
                0x000000000011db88                ReaderReceive
 .text.GetATQA  0x000000000011dbcc       0xd0 obj/iso14443a.o
 .text.iso14443a_select_cardEx
                0x000000000011dc9c      0x5e0 obj/iso14443a.o
                0x000000000011dc9c                iso14443a_select_cardEx
 .text.iso14443a_select_card
                0x000000000011e27c       0x24 obj/iso14443a.o
                0x000000000011e27c                iso14443a_select_card
 .text.iso14443a_fast_select_card
                0x000000000011e2a0       0xd4 obj/iso14443a.o
                0x000000000011e2a0                iso14443a_fast_select_card
 .text.iso14443a_setup
                0x000000000011e374       0x74 obj/iso14443a.o
                0x000000000011e374                iso14443a_setup
 .text.SimulateIso14443aTag
                0x000000000011e3e8      0xadc obj/iso14443a.o
                0x000000000011e3e8                SimulateIso14443aTag
 .text.iso14443a_antifuzz
                0x000000000011eec4      0x180 obj/iso14443a.o
                0x000000000011eec4                iso14443a_antifuzz
 .text.iso14_apdu
                0x000000000011f044      0x15c obj/iso14443a.o
                0x000000000011f044                iso14_apdu
 .text.ReaderIso14443a
                0x000000000011f1a0      0x414 obj/iso14443a.o
                0x000000000011f1a0                ReaderIso14443a
 .text.ReaderMifare
                0x000000000011f5b4      0x4f0 obj/iso14443a.o
                0x000000000011f5b4                ReaderMifare
 .text.DetectNACKbug
                0x000000000011faa4      0x3e0 obj/iso14443a.o
                0x000000000011faa4                DetectNACKbug
 .text.SimulateIso14443aTagAID
                0x000000000011fe84      0x418 obj/iso14443a.o
                0x000000000011fe84                SimulateIso14443aTagAID
 .text.mf_crypto1_decryptEx
                0x000000000012029c       0xa8 obj/mifareutil.o
                0x000000000012029c                mf_crypto1_decryptEx
 .text.mf_crypto1_decrypt
                0x0000000000120344        0xe obj/mifareutil.o
                0x0000000000120344                mf_crypto1_decrypt
 *fill*         0x0000000000120352        0x2 
 .text.mf_crypto1_encryptEx
                0x0000000000120354       0x7c obj/mifareutil.o
                0x0000000000120354                mf_crypto1_encryptEx
 .text.mf_crypto1_encrypt
                0x00000000001203d0       0x14 obj/mifareutil.o
                0x00000000001203d0                mf_crypto1_encrypt
 .text.mf_crypto1_encrypt4bit
                0x00000000001203e4       0x74 obj/mifareutil.o
                0x00000000001203e4                mf_crypto1_encrypt4bit
 .text.mifare_sendcmd
                0x0000000000120458       0x88 obj/mifareutil.o
                0x0000000000120458                mifare_sendcmd
 .text.mifare_sendcmd_short
                0x00000000001204e0      0x16c obj/mifareutil.o
                0x00000000001204e0                mifare_sendcmd_short
 .text.mifare_ultra_readblockEx
                0x000000000012064c       0xd4 obj/mifareutil.o
 .text.mifare_classic_readblock_ex
                0x0000000000120720       0xe8 obj/mifareutil.o
                0x0000000000120720                mifare_classic_readblock_ex
 .text.mifare_classic_readblock
                0x0000000000120808        0xe obj/mifareutil.o
                0x0000000000120808                mifare_classic_readblock
 *fill*         0x0000000000120816        0x2 
 .text.mifare_ul_ev1_auth
                0x0000000000120818       0xa8 obj/mifareutil.o
                0x0000000000120818                mifare_ul_ev1_auth
 .text.mifare_ultra_auth
                0x00000000001208c0      0x2c0 obj/mifareutil.o
                0x00000000001208c0                mifare_ultra_auth
 .text.mifare_ultra_aes_auth
                0x0000000000120b80      0x220 obj/mifareutil.o
                0x0000000000120b80                mifare_ultra_aes_auth
 .text.mifare_ultra_readblock
                0x0000000000120da0       0x28 obj/mifareutil.o
                0x0000000000120da0                mifare_ultra_readblock
 .text.mifare_classic_writeblock_ex
                0x0000000000120dc8      0x1c0 obj/mifareutil.o
                0x0000000000120dc8                mifare_classic_writeblock_ex
 .text.mifare_classic_value
                0x0000000000120f88      0x1a4 obj/mifareutil.o
                0x0000000000120f88                mifare_classic_value
 .text.mifare_ultra_writeblock_compat
                0x000000000012112c       0xc0 obj/mifareutil.o
                0x000000000012112c                mifare_ultra_writeblock_compat
 .text.mifare_ultra_writeblock
                0x00000000001211ec       0x88 obj/mifareutil.o
                0x00000000001211ec                mifare_ultra_writeblock
 .text.mifare_classic_halt
                0x0000000000121274       0x4c obj/mifareutil.o
                0x0000000000121274                mifare_classic_halt
 .text.mifare_ultra_halt
                0x00000000001212c0        0xe obj/mifareutil.o
                0x00000000001212c0                mifare_ultra_halt
 .text.NumBlocksPerSector
                0x00000000001212ce        0xc obj/mifareutil.o
                0x00000000001212ce                NumBlocksPerSector
 .text.FirstBlockOfSector
                0x00000000001212da       0x10 obj/mifareutil.o
                0x00000000001212da                FirstBlockOfSector
 .text.emlSetMem_xt
                0x00000000001212ea       0x10 obj/mifareutil.o
                0x00000000001212ea                emlSetMem_xt
 .text.emlGetMem
                0x00000000001212fa       0x10 obj/mifareutil.o
                0x00000000001212fa                emlGetMem
 .text.emlCheckValBl
                0x000000000012130a       0x86 obj/mifareutil.o
                0x000000000012130a                emlCheckValBl
 .text.emlGetValBl
                0x0000000000121390       0x36 obj/mifareutil.o
                0x0000000000121390                emlGetValBl
 .text.emlSetValBl
                0x00000000001213c6       0x4a obj/mifareutil.o
                0x00000000001213c6                emlSetValBl
 .text.emlGetKey
                0x0000000000121410       0x4a obj/mifareutil.o
                0x0000000000121410                emlGetKey
 *fill*         0x000000000012145a        0x2 
 .text.emlClearMem
                0x000000000012145c       0x64 obj/mifareutil.o
                0x000000000012145c                emlClearMem
 .text.SectorTrailer
                0x00000000001214c0       0x30 obj/mifareutil.o
                0x00000000001214c0                SectorTrailer
 .text.IsSectorTrailer
                0x00000000001214f0       0x14 obj/mifareutil.o
                0x00000000001214f0                IsSectorTrailer
 .text.validate_prng_nonce
                0x0000000000121504       0x48 obj/mifareutil.o
                0x0000000000121504                validate_prng_nonce
 .text.validate_parity_nonce
                0x000000000012154c       0x5c obj/mifareutil.o
                0x000000000012154c                validate_parity_nonce
 .text.nonce16_distance
                0x00000000001215a8       0x4e obj/mifareutil.o
                0x00000000001215a8                nonce16_distance
 .text.nonce_distance
                0x00000000001215f6       0x2c obj/mifareutil.o
                0x00000000001215f6                nonce_distance
 .text.nonce16_index
                0x0000000000121622       0x14 obj/mifareutil.o
                0x0000000000121622                nonce16_index
 *fill*         0x0000000000121636        0x2 
 .text.mifare_classic_authex_cmd
                0x0000000000121638      0x3f4 obj/mifareutil.o
                0x0000000000121638                mifare_classic_authex_cmd
 .text.mifare_classic_authex
                0x0000000000121a2c       0x38 obj/mifareutil.o
                0x0000000000121a2c                mifare_classic_authex
 .text.mifare_classic_auth
                0x0000000000121a64       0x22 obj/mifareutil.o
                0x0000000000121a64                mifare_classic_auth
 .text.rewind_nonce
                0x0000000000121a86       0x40 obj/mifareutil.o
                0x0000000000121a86                rewind_nonce
 *fill*         0x0000000000121ac6        0x2 
 .text.mifare_wakeup_auth
                0x0000000000121ac8      0x218 obj/mifarecmd.o
 .text.chkKey   0x0000000000121ce0       0x54 obj/mifarecmd.o
 .text.mf_reset_card
                0x0000000000121d34       0x1c obj/mifarecmd.o
 .text.MifareECardLoad.part.0
                0x0000000000121d50      0x310 obj/mifarecmd.o
 .text.chkKey_scanB.constprop.0
                0x0000000000122060       0x84 obj/mifarecmd.o
 .text.chkKey_loopBonly.constprop.0
                0x00000000001220e4      0x144 obj/mifarecmd.o
 .text.chkKey_scanA.constprop.0
                0x0000000000122228       0x80 obj/mifarecmd.o
 .text.mifare_cmd_readblocks
                0x00000000001222a8       0xd4 obj/mifarecmd.o
                0x00000000001222a8                mifare_cmd_readblocks
 .text.mifare_cmd_writeblocks
                0x000000000012237c       0xc0 obj/mifarecmd.o
                0x000000000012237c                mifare_cmd_writeblocks
 .text.MifareReadSector
                0x000000000012243c       0x58 obj/mifarecmd.o
                0x000000000012243c                MifareReadSector
 .text.MifareUC_Auth
                0x0000000000122494       0xc4 obj/mifarecmd.o
                0x0000000000122494                MifareUC_Auth
 .text.MifareUL_AES_Auth
                0x0000000000122558       0xb0 obj/mifarecmd.o
                0x0000000000122558                MifareUL_AES_Auth
 .text.MifareUReadBlock
                0x0000000000122608      0x124 obj/mifarecmd.o
                0x0000000000122608                MifareUReadBlock
 .text.MifareUReadCard
                0x000000000012272c      0x18c obj/mifarecmd.o
                0x000000000012272c                MifareUReadCard
 .text.MifareValue
                0x00000000001228b8      0x1f8 obj/mifarecmd.o
                0x00000000001228b8                MifareValue
 .text.MifareUWriteBlock
                0x0000000000122ab0      0x130 obj/mifarecmd.o
                0x0000000000122ab0                MifareUWriteBlock
 .text.MifareUWriteBlockCompat
                0x0000000000122be0      0x13c obj/mifarecmd.o
                0x0000000000122be0                MifareUWriteBlockCompat
 .text.MifareUSetPwd
                0x0000000000122d1c      0x194 obj/mifarecmd.o
                0x0000000000122d1c                MifareUSetPwd
 .text.MifareAcquireNonces
                0x0000000000122eb0      0x220 obj/mifarecmd.o
                0x0000000000122eb0                MifareAcquireNonces
 .text.MifareAcquireEncryptedNonces
                0x00000000001230d0      0x354 obj/mifarecmd.o
                0x00000000001230d0                MifareAcquireEncryptedNonces
 .text.MifareAcquireStaticEncryptedNonces
                0x0000000000123424      0x6ec obj/mifarecmd.o
                0x0000000000123424                MifareAcquireStaticEncryptedNonces
 .text.MifareNested
                0x0000000000123b10      0x628 obj/mifarecmd.o
                0x0000000000123b10                MifareNested
 .text.MifareStaticNested
                0x0000000000124138      0x32c obj/mifarecmd.o
                0x0000000000124138                MifareStaticNested
 .text.MifareChkKeys
                0x0000000000124464      0x1a8 obj/mifarecmd.o
                0x0000000000124464                MifareChkKeys
 .text.MifareChkKeys_file
                0x000000000012460c       0x52 obj/mifarecmd.o
                0x000000000012460c                MifareChkKeys_file
 *fill*         0x000000000012465e        0x2 
 .text.MifarePersonalizeUID
                0x0000000000124660      0x11c obj/mifarecmd.o
                0x0000000000124660                MifarePersonalizeUID
 .text.MifareEMemClr
                0x000000000012477c       0x12 obj/mifarecmd.o
                0x000000000012477c                MifareEMemClr
 *fill*         0x000000000012478e        0x2 
 .text.MifareEMemGet
                0x0000000000124790       0x64 obj/mifarecmd.o
                0x0000000000124790                MifareEMemGet
 .text.MifareECardLoad
                0x00000000001247f4       0x30 obj/mifarecmd.o
                0x00000000001247f4                MifareECardLoad
 .text.MifareChkKeys_fast
                0x0000000000124824      0x778 obj/mifarecmd.o
                0x0000000000124824                MifareChkKeys_fast
 .text.MifareECardLoadExt
                0x0000000000124f9c       0x24 obj/mifarecmd.o
                0x0000000000124f9c                MifareECardLoadExt
 .text.OnSuccessMagic
                0x0000000000124fc0       0x1a obj/mifarecmd.o
                0x0000000000124fc0                OnSuccessMagic
 *fill*         0x0000000000124fda        0x2 
 .text.MifareCIdent
                0x0000000000124fdc      0x498 obj/mifarecmd.o
                0x0000000000124fdc                MifareCIdent
 .text.MifareHasStaticNonce
                0x0000000000125474      0x130 obj/mifarecmd.o
                0x0000000000125474                MifareHasStaticNonce
 .text.MifareHasStaticEncryptedNonce
                0x00000000001255a4      0x45c obj/mifarecmd.o
                0x00000000001255a4                MifareHasStaticEncryptedNonce
 .text.OnErrorMagic
                0x0000000000125a00       0x2e obj/mifarecmd.o
                0x0000000000125a00                OnErrorMagic
 *fill*         0x0000000000125a2e        0x2 
 .text.MifareCSetBlock
                0x0000000000125a30      0x324 obj/mifarecmd.o
                0x0000000000125a30                MifareCSetBlock
 .text.MifareCGetBlock
                0x0000000000125d54      0x23c obj/mifarecmd.o
                0x0000000000125d54                MifareCGetBlock
 .text.DoGen3Cmd
                0x0000000000125f90       0xa4 obj/mifarecmd.o
                0x0000000000125f90                DoGen3Cmd
 .text.MifareGen3UID
                0x0000000000126034       0xd0 obj/mifarecmd.o
                0x0000000000126034                MifareGen3UID
 .text.MifareGen3Blk
                0x0000000000126104      0x150 obj/mifarecmd.o
                0x0000000000126104                MifareGen3Blk
 .text.MifareGen3Freez
                0x0000000000126254       0x68 obj/mifarecmd.o
                0x0000000000126254                MifareGen3Freez
 .text.MifareG4ReadBlk
                0x00000000001262bc      0x150 obj/mifarecmd.o
                0x00000000001262bc                MifareG4ReadBlk
 .text.MifareG4WriteBlk
                0x000000000012640c      0x17c obj/mifarecmd.o
                0x000000000012640c                MifareG4WriteBlk
 .text.MifareSetMod
                0x0000000000126588      0x148 obj/mifarecmd.o
                0x0000000000126588                MifareSetMod
 .text.MifareU_Otp_Tearoff
                0x00000000001266d0       0xf0 obj/mifarecmd.o
                0x00000000001266d0                MifareU_Otp_Tearoff
 .text.MifareU_Counter_Tearoff
                0x00000000001267c0       0xd4 obj/mifarecmd.o
                0x00000000001267c0                MifareU_Counter_Tearoff
 .text.EPA_Setup
                0x0000000000126894       0xb0 obj/epa.o
 .text.EPA_Parse_CardAccess
                0x0000000000126944       0xb8 obj/epa.o
 .text.EPA_Finish
                0x00000000001269fc       0x20 obj/epa.o
 .text.EPA_PACE_Collect_Nonce_Abort
                0x0000000000126a1c       0x34 obj/epa.o
 .text.EPA_APDU
                0x0000000000126a50       0x40 obj/epa.o
 .text.EPA_Read_CardAccess
                0x0000000000126a90       0x98 obj/epa.o
 .text.EPA_PACE_Collect_Nonce
                0x0000000000126b28      0x178 obj/epa.o
                0x0000000000126b28                EPA_PACE_Collect_Nonce
 .text.EPA_PACE_Replay
                0x0000000000126ca0      0x164 obj/epa.o
                0x0000000000126ca0                EPA_PACE_Replay
 .text.EPA_PACE_Simulate
                0x0000000000126e04       0x84 obj/epa.o
                0x0000000000126e04                EPA_PACE_Simulate
 .text.IsAccessAllowed
                0x0000000000126e88      0x2a8 obj/mifaresim.o
 .text.Mifare1ksim
                0x0000000000127130     0x1a88 obj/mifaresim.o
                0x0000000000127130                Mifare1ksim
 .text.Uart14bReset
                0x0000000000128bb8       0x1c obj/iso14443b.o
 .text.Demod14bReset
                0x0000000000128bd4       0x1c obj/iso14443b.o
 .text.iso14b_set_timeout
                0x0000000000128bf0       0x34 obj/iso14443b.o
 .text.iso14b_set_fwt
                0x0000000000128c24       0x34 obj/iso14443b.o
 .text.CodeIso14443bAsTag
                0x0000000000128c58      0x11c obj/iso14443b.o
 .text.CodeAndTransmit14443bAsReader
                0x0000000000128d74      0x254 obj/iso14443b.o
 .text.TransmitFor14443b_AsTag
                0x0000000000128fc8       0x54 obj/iso14443b.o
 .text.Get14443bAnswerFromTag
                0x000000000012901c      0x1ac obj/iso14443b.o
 .text.iso14443b_select_srx_card
                0x00000000001291c8      0x184 obj/iso14443b.o
 .text.SimulateIso14443bTag
                0x000000000012934c      0x308 obj/iso14443b.o
                0x000000000012934c                SimulateIso14443bTag
 .text.iso14443b_apdu
                0x0000000000129654      0x1d8 obj/iso14443b.o
                0x0000000000129654                iso14443b_apdu
 .text.iso14443b_select_card
                0x000000000012982c      0x1b8 obj/iso14443b.o
                0x000000000012982c                iso14443b_select_card
 .text.iso14443b_setup
                0x00000000001299e4       0x84 obj/iso14443b.o
                0x00000000001299e4                iso14443b_setup
 .text.read_14b_st_block
                0x0000000000129a68       0xe8 obj/iso14443b.o
                0x0000000000129a68                read_14b_st_block
 .text.SniffIso14443b
                0x0000000000129b50      0x344 obj/iso14443b.o
                0x0000000000129b50                SniffIso14443b
 .text.SendRawCommand14443B
                0x0000000000129e94      0xcd4 obj/iso14443b.o
                0x0000000000129e94                SendRawCommand14443B
 .text.filter   0x000000000012ab68       0x6c obj/crypto1.o
                0x000000000012ab68                filter
 .text.crypto1_init
                0x000000000012abd4       0x50 obj/crypto1.o
                0x000000000012abd4                crypto1_init
 .text.crypto1_deinit
                0x000000000012ac24        0x8 obj/crypto1.o
                0x000000000012ac24                crypto1_deinit
 .text.crypto1_bit
                0x000000000012ac2c       0x4c obj/crypto1.o
                0x000000000012ac2c                crypto1_bit
 .text.crypto1_byte
                0x000000000012ac78       0xb4 obj/crypto1.o
                0x000000000012ac78                crypto1_byte
 .text.crypto1_word
                0x000000000012ad2c      0x286 obj/crypto1.o
                0x000000000012ad2c                crypto1_word
 *fill*         0x000000000012afb2        0x2 
 .text.prng_successor
                0x000000000012afb4       0x4c obj/crypto1.o
                0x000000000012afb4                prng_successor
 .text.mbedtls_des_setkey
                0x000000000012b000      0x300 obj/des.o
                0x000000000012b000                mbedtls_des_setkey
 .text.des3_set2key
                0x000000000012b300       0x86 obj/des.o
 .text.des3_set3key
                0x000000000012b386       0x6e obj/des.o
 .text.mbedtls_des_setkey_enc
                0x000000000012b3f4        0xe obj/des.o
                0x000000000012b3f4                mbedtls_des_setkey_enc
 .text.mbedtls_des_setkey_dec
                0x000000000012b402       0x30 obj/des.o
                0x000000000012b402                mbedtls_des_setkey_dec
 .text.mbedtls_des3_set2key_enc
                0x000000000012b432       0x1e obj/des.o
                0x000000000012b432                mbedtls_des3_set2key_enc
 .text.mbedtls_des3_set2key_dec
                0x000000000012b450       0x20 obj/des.o
                0x000000000012b450                mbedtls_des3_set2key_dec
 .text.mbedtls_des3_set3key_enc
                0x000000000012b470       0x1e obj/des.o
                0x000000000012b470                mbedtls_des3_set3key_enc
 .text.mbedtls_des3_set3key_dec
                0x000000000012b48e       0x20 obj/des.o
                0x000000000012b48e                mbedtls_des3_set3key_dec
 *fill*         0x000000000012b4ae        0x2 
 .text.mbedtls_des_crypt_ecb
                0x000000000012b4b0      0x214 obj/des.o
                0x000000000012b4b0                mbedtls_des_crypt_ecb
 .text.mbedtls_des3_crypt_ecb
                0x000000000012b6c4      0x414 obj/des.o
                0x000000000012b6c4                mbedtls_des3_crypt_ecb
 .text.des_decrypt
                0x000000000012bad8       0x24 obj/desfire_crypto.o
                0x000000000012bad8                des_decrypt
 .text.tdes_nxp_receive
                0x000000000012bafc       0x74 obj/desfire_crypto.o
                0x000000000012bafc                tdes_nxp_receive
 .text.tdes_nxp_send
                0x000000000012bb70       0x70 obj/desfire_crypto.o
                0x000000000012bb70                tdes_nxp_send
 .text.Desfire_des_key_new_with_version
                0x000000000012bbe0       0x28 obj/desfire_crypto.o
                0x000000000012bbe0                Desfire_des_key_new_with_version
 .text.Desfire_des_key_new
                0x000000000012bc08       0x30 obj/desfire_crypto.o
                0x000000000012bc08                Desfire_des_key_new
 .text.Desfire_3des_key_new_with_version
                0x000000000012bc38       0x1c obj/desfire_crypto.o
                0x000000000012bc38                Desfire_3des_key_new_with_version
 .text.Desfire_3k3des_key_new_with_version
                0x000000000012bc54       0x1c obj/desfire_crypto.o
                0x000000000012bc54                Desfire_3k3des_key_new_with_version
 .text.Desfire_3k3des_key_new
                0x000000000012bc70       0x34 obj/desfire_crypto.o
                0x000000000012bc70                Desfire_3k3des_key_new
 .text.Desfire_aes_key_new_with_version
                0x000000000012bca4       0x22 obj/desfire_crypto.o
                0x000000000012bca4                Desfire_aes_key_new_with_version
 .text.Desfire_aes_key_new
                0x000000000012bcc6       0x10 obj/desfire_crypto.o
                0x000000000012bcc6                Desfire_aes_key_new
 .text.Desfire_session_key_new
                0x000000000012bcd6       0xe2 obj/desfire_crypto.o
                0x000000000012bcd6                Desfire_session_key_new
 .text.CreateAPDU
                0x000000000012bdb8       0x88 obj/mifaredesfire.o
                0x000000000012bdb8                CreateAPDU
 .text.DesfireAPDU
                0x000000000012be40       0xb8 obj/mifaredesfire.o
                0x000000000012be40                DesfireAPDU
 .text.OnSuccess
                0x000000000012bef8       0x40 obj/mifaredesfire.o
                0x000000000012bef8                OnSuccess
 .text.MifareDesfireGetInformation
                0x000000000012bf38      0x200 obj/mifaredesfire.o
                0x000000000012bf38                MifareDesfireGetInformation
 .text.OnError  0x000000000012c138       0x2e obj/mifaredesfire.o
                0x000000000012c138                OnError
 *fill*         0x000000000012c166        0x2 
 .text.InitDesfireCard
                0x000000000012c168       0x58 obj/mifaredesfire.o
                0x000000000012c168                InitDesfireCard
 .text.MifareSendCommand
                0x000000000012c1c0       0xd4 obj/mifaredesfire.o
                0x000000000012c1c0                MifareSendCommand
 .text.OnErrorNG
                0x000000000012c294       0x18 obj/mifaredesfire.o
                0x000000000012c294                OnErrorNG
 .text.MifareDES_Auth1
                0x000000000012c2ac      0x620 obj/mifaredesfire.o
                0x000000000012c2ac                MifareDES_Auth1
 .text.mbedtls_aes_init
                0x000000000012c8cc       0x12 obj/aes.o
                0x000000000012c8cc                mbedtls_aes_init
 .text.mbedtls_aes_free
                0x000000000012c8de       0x14 obj/aes.o
                0x000000000012c8de                mbedtls_aes_free
 *fill*         0x000000000012c8f2        0x2 
 .text.mbedtls_aes_setkey_enc
                0x000000000012c8f4      0x1b0 obj/aes.o
                0x000000000012c8f4                mbedtls_aes_setkey_enc
 .text.mbedtls_aes_setkey_dec
                0x000000000012caa4      0x108 obj/aes.o
                0x000000000012caa4                mbedtls_aes_setkey_dec
 .text.mbedtls_internal_aes_encrypt
                0x000000000012cbac      0x3bc obj/aes.o
                0x000000000012cbac                mbedtls_internal_aes_encrypt
 .text.mbedtls_internal_aes_decrypt
                0x000000000012cf68      0x3b8 obj/aes.o
                0x000000000012cf68                mbedtls_internal_aes_decrypt
 .text.mbedtls_aes_crypt_ecb
                0x000000000012d320       0x1c obj/aes.o
                0x000000000012d320                mbedtls_aes_crypt_ecb
 .text.mbedtls_aes_crypt_cbc
                0x000000000012d33c       0xac obj/aes.o
                0x000000000012d33c                mbedtls_aes_crypt_cbc
 .text.mbedtls_platform_zeroize
                0x000000000012d3e8       0x14 obj/platform_util.o
                0x000000000012d3e8                mbedtls_platform_zeroize
 .text.rotateCSN
                0x000000000012d3fc       0x24 obj/iclass.o
 .text.CodeIClassTagSOF
                0x000000000012d420       0x22 obj/iclass.o
 .text.get_pagemap
                0x000000000012d442        0x8 obj/iclass.o
                0x000000000012d442                get_pagemap
 .text.SniffIClass
                0x000000000012d44a        0xe obj/iclass.o
                0x000000000012d44a                SniffIClass
 .text.do_iclass_simulation
                0x000000000012d458      0x904 obj/iclass.o
                0x000000000012d458                do_iclass_simulation
 .text.do_iclass_simulation_nonsec
                0x000000000012dd5c      0x448 obj/iclass.o
                0x000000000012dd5c                do_iclass_simulation_nonsec
 .text.iclass_simulate
                0x000000000012e1a4      0x1ec obj/iclass.o
                0x000000000012e1a4                iclass_simulate
 .text.SimulateIClass
                0x000000000012e390       0x1e obj/iclass.o
                0x000000000012e390                SimulateIClass
 .text.iclass_send_as_reader
                0x000000000012e3ae       0x56 obj/iclass.o
                0x000000000012e3ae                iclass_send_as_reader
 .text.iclass_send_cmd_with_retries
                0x000000000012e404       0x94 obj/iclass.o
 .text.iclass_writeblock_ext
                0x000000000012e498      0x104 obj/iclass.o
 .text.select_iclass_tag_ex.constprop.0
                0x000000000012e59c      0x284 obj/iclass.o
 .text.select_iclass_tag
                0x000000000012e820       0x1c obj/iclass.o
                0x000000000012e820                select_iclass_tag
 .text.ReaderIClass
                0x000000000012e83c       0x88 obj/iclass.o
                0x000000000012e83c                ReaderIClass
 .text.authenticate_iclass_tag
                0x000000000012e8c4       0xda obj/iclass.o
                0x000000000012e8c4                authenticate_iclass_tag
 *fill*         0x000000000012e99e        0x2 
 .text.iClass_Authentication_fast
                0x000000000012e9a0      0x178 obj/iclass.o
                0x000000000012e9a0                iClass_Authentication_fast
 .text.iClass_ReadBlock
                0x000000000012eb18      0x11c obj/iclass.o
                0x000000000012eb18                iClass_ReadBlock
 .text.iClass_Dump
                0x000000000012ec34      0x1ac obj/iclass.o
                0x000000000012ec34                iClass_Dump
 .text.iClass_WriteBlock
                0x000000000012ede0      0x22c obj/iclass.o
                0x000000000012ede0                iClass_WriteBlock
 .text.iclass_credit_epurse
                0x000000000012f00c      0x328 obj/iclass.o
                0x000000000012f00c                iclass_credit_epurse
 .text.iClass_Restore
                0x000000000012f334      0x158 obj/iclass.o
                0x000000000012f334                iClass_Restore
 .text.iClass_Recover
                0x000000000012f48c      0x5a8 obj/iclass.o
                0x000000000012f48c                iClass_Recover
 .text.tailBit  0x000000000012fa34       0x20 obj/optimized_cipherutils.o
                0x000000000012fa34                tailBit
 .text.pushBit  0x000000000012fa54       0x26 obj/optimized_cipherutils.o
                0x000000000012fa54                pushBit
 .text.push6bits
                0x000000000012fa7a       0x48 obj/optimized_cipherutils.o
                0x000000000012fa7a                push6bits
 .text.bitsLeft
                0x000000000012fac2        0x8 obj/optimized_cipherutils.o
                0x000000000012fac2                bitsLeft
 .text.x_bytes_to_num
                0x000000000012faca       0x24 obj/optimized_cipherutils.o
                0x000000000012faca                x_bytes_to_num
 .text.pushbackSixBitByte
                0x000000000012faee       0x3e obj/optimized_ikeys.o
 .text.ck       0x000000000012fb2c       0xb2 obj/optimized_ikeys.o
 *fill*         0x000000000012fbde        0x2 
 .text.hash0    0x000000000012fbe0      0x23c obj/optimized_ikeys.o
                0x000000000012fbe0                hash0
 .text.diversifyKey
                0x000000000012fe1c       0x38 obj/optimized_ikeys.o
                0x000000000012fe1c                diversifyKey
 .text.permutekey_rev
                0x000000000012fe54       0x6a obj/optimized_elite.o
                0x000000000012fe54                permutekey_rev
 *fill*         0x000000000012febe        0x2 
 .text.desdecrypt_iclass
                0x000000000012fec0       0x30 obj/optimized_elite.o
 .text.desencrypt_iclass
                0x000000000012fef0       0x30 obj/optimized_elite.o
 .text.hash1    0x000000000012ff20      0x114 obj/optimized_elite.o
                0x000000000012ff20                hash1
 .text.hash2    0x0000000000130034       0xd4 obj/optimized_elite.o
                0x0000000000130034                hash2
 .text.opt_successor
                0x0000000000130108       0x84 obj/optimized_cipher.o
 .text.opt_suc  0x000000000013018c       0xb0 obj/optimized_cipher.o
 .text.opt_output
                0x000000000013023c       0xbc obj/optimized_cipher.o
 .text.opt_doReaderMAC
                0x00000000001302f8       0x60 obj/optimized_cipher.o
                0x00000000001302f8                opt_doReaderMAC
 .text.doMAC_N  0x0000000000130358       0x64 obj/optimized_cipher.o
                0x0000000000130358                doMAC_N
 .text.opt_doTagMAC_1
                0x00000000001303bc       0x44 obj/optimized_cipher.o
                0x00000000001303bc                opt_doTagMAC_1
 .text.opt_doTagMAC_2
                0x0000000000130400       0x26 obj/optimized_cipher.o
                0x0000000000130400                opt_doTagMAC_2
 .text.iclass_calc_div_key
                0x0000000000130426       0x6c obj/optimized_cipher.o
                0x0000000000130426                iclass_calc_div_key
 *fill*         0x0000000000130492        0x2 
 .text.sam_rxtx
                0x0000000000130494       0xdc obj/sam_picopass.o
 .text.sam_picopass_get_pacs
                0x0000000000130570      0x6a4 obj/sam_picopass.o
                0x0000000000130570                sam_picopass_get_pacs
 .text.crc_clear
                0x0000000000130c14       0x20 obj/crc.o
                0x0000000000130c14                crc_clear
 .text.crc_init
                0x0000000000130c34       0x2a obj/crc.o
                0x0000000000130c34                crc_init
 .text.crc_init_ref
                0x0000000000130c5e       0x26 obj/crc.o
                0x0000000000130c5e                crc_init_ref
 .text.crc_update2
                0x0000000000130c84       0x42 obj/crc.o
                0x0000000000130c84                crc_update2
 .text.crc_update
                0x0000000000130cc6       0x3a obj/crc.o
                0x0000000000130cc6                crc_update
 .text.crc_finish
                0x0000000000130d00       0x20 obj/crc.o
                0x0000000000130d00                crc_finish
 .text.CRC8Legic
                0x0000000000130d20       0x48 obj/crc.o
                0x0000000000130d20                CRC8Legic
 .text.CRC8Hitag1Bits
                0x0000000000130d68       0x70 obj/crc.o
                0x0000000000130d68                CRC8Hitag1Bits
 .text.generate_table
                0x0000000000130dd8       0x74 obj/crc16.o
                0x0000000000130dd8                generate_table
 .text.reset_table
                0x0000000000130e4c       0x2c obj/crc16.o
                0x0000000000130e4c                reset_table
 .text.init_table
                0x0000000000130e78       0x6c obj/crc16.o
                0x0000000000130e78                init_table
 .text.crc16_fast
                0x0000000000130ee4       0x74 obj/crc16.o
                0x0000000000130ee4                crc16_fast
 .text.update_crc16_ex
                0x0000000000130f58       0x34 obj/crc16.o
                0x0000000000130f58                update_crc16_ex
 .text.update_crc16
                0x0000000000130f8c       0x14 obj/crc16.o
                0x0000000000130f8c                update_crc16
 .text.crc16_ccitt
                0x0000000000130fa0       0x18 obj/crc16.o
                0x0000000000130fa0                crc16_ccitt
 .text.crc16_fdxb
                0x0000000000130fb8       0x14 obj/crc16.o
                0x0000000000130fb8                crc16_fdxb
 .text.crc16_kermit
                0x0000000000130fcc       0x12 obj/crc16.o
                0x0000000000130fcc                crc16_kermit
 .text.crc16_xmodem
                0x0000000000130fde       0x12 obj/crc16.o
                0x0000000000130fde                crc16_xmodem
 .text.crc16_x25
                0x0000000000130ff0       0x1c obj/crc16.o
                0x0000000000130ff0                crc16_x25
 .text.crc16_a  0x000000000013100c       0x18 obj/crc16.o
                0x000000000013100c                crc16_a
 .text.crc16_iclass
                0x0000000000131024       0x18 obj/crc16.o
                0x0000000000131024                crc16_iclass
 .text.crc16_philips
                0x000000000013103c       0x18 obj/crc16.o
                0x000000000013103c                crc16_philips
 .text.compute_crc
                0x0000000000131054       0x8a obj/crc16.o
                0x0000000000131054                compute_crc
 .text.Crc16ex  0x00000000001310de       0x84 obj/crc16.o
                0x00000000001310de                Crc16ex
 *fill*         0x0000000000131162        0x2 
 .text.check_crc
                0x0000000000131164       0x90 obj/crc16.o
                0x0000000000131164                check_crc
 .text.FelicaFrameReset
                0x00000000001311f4       0x14 obj/felica.o
 .text.shiftInByte
                0x0000000000131208       0x68 obj/felica.o
 .text.iso18092_setup
                0x0000000000131270       0x8c obj/felica.o
 .text.Process18092Byte
                0x00000000001312fc      0x138 obj/felica.o
 .text.TransmitFor18092_AsReader.part.0.constprop.0
                0x0000000000131434       0xe4 obj/felica.o
 .text.WaitForFelicaReply.constprop.0
                0x0000000000131518       0xd0 obj/felica.o
 .text.felica_sendraw
                0x00000000001315e8      0x23c obj/felica.o
                0x00000000001315e8                felica_sendraw
 .text.felica_sniff
                0x0000000000131824      0x170 obj/felica.o
                0x0000000000131824                felica_sniff
 .text.felica_sim_lite
                0x0000000000131994      0x244 obj/felica.o
                0x0000000000131994                felica_sim_lite
 .text.felica_dump_lite_s
                0x0000000000131bd8      0x1c8 obj/felica.o
                0x0000000000131bd8                felica_dump_lite_s
 .text.ModInfo  0x0000000000131da0       0x14 obj/lf_samyrun.o
                0x0000000000131da0                ModInfo
 .text.RunMod   0x0000000000131db4      0x1f4 obj/lf_samyrun.o
                0x0000000000131db4                RunMod
 .text.zx8211_setup_read
                0x0000000000131fa8       0x64 obj/lfzx.o
 .text.zx8211_read
                0x000000000013200c       0xa0 obj/lfzx.o
                0x000000000013200c                zx8211_read
 .text.zx8211_write
                0x00000000001320ac       0x1a obj/lfzx.o
                0x00000000001320ac                zx8211_write
 *fill*         0x00000000001320c6        0x2 
 .text.print_debug_level
                0x00000000001320c8       0x68 obj/appmain.o
 .text.tearoff_hook
                0x0000000000132130       0x50 obj/appmain.o
                0x0000000000132130                tearoff_hook
 .text.hf_field_off
                0x0000000000132180       0x20 obj/appmain.o
                0x0000000000132180                hf_field_off
 .text.send_wtx
                0x00000000001321a0       0x28 obj/appmain.o
                0x00000000001321a0                send_wtx
 .text.SumAdc   0x00000000001321c8       0x58 obj/appmain.o
                0x00000000001321c8                SumAdc
 .text.AvgAdc   0x0000000000132220       0x14 obj/appmain.o
                0x0000000000132220                AvgAdc
 .text.print_stack_usage
                0x0000000000132234       0x34 obj/appmain.o
                0x0000000000132234                print_stack_usage
 .text.SendStatus
                0x0000000000132268      0x1b0 obj/appmain.o
 .text.ReadMem  0x0000000000132418       0x30 obj/appmain.o
                0x0000000000132418                ReadMem
 .text.StandAloneMode
                0x0000000000132448       0x3c obj/appmain.o
                0x0000000000132448                StandAloneMode
 .text.ListenReaderField
                0x0000000000132484      0x380 obj/appmain.o
                0x0000000000132484                ListenReaderField
 .text.AppMain  0x0000000000132804     0x2c9c obj/appmain.o
                0x0000000000132804                AppMain
 .text.kvsprintf
                0x00000000001354a0      0x7b0 obj/printf.o
                0x00000000001354a0                kvsprintf
 .text.sprintf  0x0000000000135c50       0x1a obj/printf.o
                0x0000000000135c50                sprintf
 .text.DbpStringEx
                0x0000000000135c6a       0x30 obj/dbprint.o
                0x0000000000135c6a                DbpStringEx
 .text.DbpString
                0x0000000000135c9a       0x18 obj/dbprint.o
                0x0000000000135c9a                DbpString
 .text.Dbprintf
                0x0000000000135cb2       0x34 obj/dbprint.o
                0x0000000000135cb2                Dbprintf
 *fill*         0x0000000000135ce6        0x2 
 .text.Dbhexdump
                0x0000000000135ce8       0x80 obj/dbprint.o
                0x0000000000135ce8                Dbhexdump
 .text.print_result
                0x0000000000135d68       0xb8 obj/dbprint.o
                0x0000000000135d68                print_result
 .text.print_dbg
                0x0000000000135e20       0x18 obj/dbprint.o
                0x0000000000135e20                print_dbg
 .text.hexchar_to_dec
                0x0000000000135e38       0x2c obj/commonutil.o
 .text.reflect  0x0000000000135e64       0x28 obj/commonutil.o
                0x0000000000135e64                reflect
 .text.reflect8
                0x0000000000135e8c       0x34 obj/commonutil.o
                0x0000000000135e8c                reflect8
 .text.reflect16
                0x0000000000135ec0       0x60 obj/commonutil.o
                0x0000000000135ec0                reflect16
 .text.reflect32
                0x0000000000135f20       0x60 obj/commonutil.o
                0x0000000000135f20                reflect32
 .text.num_to_bytes
                0x0000000000135f80       0x18 obj/commonutil.o
                0x0000000000135f80                num_to_bytes
 .text.bytes_to_num
                0x0000000000135f98       0x24 obj/commonutil.o
                0x0000000000135f98                bytes_to_num
 .text.Uint4byteToMemLe
                0x0000000000135fbc       0x10 obj/commonutil.o
                0x0000000000135fbc                Uint4byteToMemLe
 .text.Uint4byteToMemBe
                0x0000000000135fcc       0x10 obj/commonutil.o
                0x0000000000135fcc                Uint4byteToMemBe
 .text.rol      0x0000000000135fdc       0x1e obj/commonutil.o
                0x0000000000135fdc                rol
 .text.le24toh  0x0000000000135ffa       0x12 obj/commonutil.o
                0x0000000000135ffa                le24toh
 .text.htole24  0x000000000013600c        0xc obj/commonutil.o
                0x000000000013600c                htole24
 .text.hexstr_to_byte_array
                0x0000000000136018       0x58 obj/commonutil.o
                0x0000000000136018                hexstr_to_byte_array
 .text.reverse_arraybytes_copy
                0x0000000000136070       0x48 obj/commonutil.o
                0x0000000000136070                reverse_arraybytes_copy
 .text.concatbits
                0x00000000001360b8       0xb4 obj/commonutil.o
                0x00000000001360b8                concatbits
 .text.nbytes   0x000000000013616c       0x10 obj/util.o
                0x000000000013616c                nbytes
 .text.hex2binarray_n
                0x000000000013617c       0x46 obj/util.o
                0x000000000013617c                hex2binarray_n
 .text.binarray2hex
                0x00000000001361c2       0x48 obj/util.o
                0x00000000001361c2                binarray2hex
 *fill*         0x000000000013620a        0x2 
 .text.LEDsoff  0x000000000013620c       0x2c obj/util.o
                0x000000000013620c                LEDsoff
 .text.SpinOff  0x0000000000136238       0x38 obj/util.o
                0x0000000000136238                SpinOff
 .text.SpinErr  0x0000000000136270       0xc4 obj/util.o
                0x0000000000136270                SpinErr
 .text.SpinDown
                0x0000000000136334       0x68 obj/util.o
                0x0000000000136334                SpinDown
 .text.SpinUp   0x000000000013639c       0x68 obj/util.o
                0x000000000013639c                SpinUp
 .text.BUTTON_HELD
                0x0000000000136404       0xa8 obj/util.o
                0x0000000000136404                BUTTON_HELD
 .text.data_available
                0x00000000001364ac        0xc obj/util.o
                0x00000000001364ac                data_available
 .text.data_available_fast
                0x00000000001364b8       0x10 obj/util.o
                0x00000000001364b8                data_available_fast
 .text.flash_size_from_cidr
                0x00000000001364c8       0x1c obj/util.o
                0x00000000001364c8                flash_size_from_cidr
 .text.get_flash_size
                0x00000000001364e4       0x14 obj/util.o
                0x00000000001364e4                get_flash_size
 .text.memcpy   0x00000000001364f8       0x18 obj/string.o
                0x00000000001364f8                memcpy
 .text.memmove  0x0000000000136510       0x2a obj/string.o
                0x0000000000136510                memmove
 .text.memset   0x000000000013653a       0x18 obj/string.o
                0x000000000013653a                memset
 .text.memcmp   0x0000000000136552       0x22 obj/string.o
                0x0000000000136552                memcmp
 .text.strlen   0x0000000000136574       0x10 obj/string.o
                0x0000000000136574                strlen
 .text.strncat  0x0000000000136584       0x30 obj/string.o
                0x0000000000136584                strncat
 .text.strcpy   0x00000000001365b4        0xe obj/string.o
                0x00000000001365b4                strcpy
 .text.strncpy  0x00000000001365c2       0x32 obj/string.o
                0x00000000001365c2                strncpy
 .text.strcmp   0x00000000001365f4       0x1e obj/string.o
                0x00000000001365f4                strcmp
 *fill*         0x0000000000136612        0x2 
 .text.BigBuf_initialize
                0x0000000000136614       0x2c obj/BigBuf.o
                0x0000000000136614                BigBuf_initialize
 .text.BigBuf_get_addr
                0x0000000000136640        0x8 obj/BigBuf.o
                0x0000000000136640                BigBuf_get_addr
 .text.BigBuf_get_size
                0x0000000000136648        0xc obj/BigBuf.o
                0x0000000000136648                BigBuf_get_size
 .text.BigBuf_Clear_ext
                0x0000000000136654       0x38 obj/BigBuf.o
                0x0000000000136654                BigBuf_Clear_ext
 .text.BigBuf_Clear
                0x000000000013668c        0xe obj/BigBuf.o
                0x000000000013668c                BigBuf_Clear
 *fill*         0x000000000013669a        0x2 
 .text.BigBuf_Clear_keep_EM
                0x000000000013669c       0x1c obj/BigBuf.o
                0x000000000013669c                BigBuf_Clear_keep_EM
 .text.BigBuf_malloc
                0x00000000001366b8       0x28 obj/BigBuf.o
                0x00000000001366b8                BigBuf_malloc
 .text.BigBuf_calloc
                0x00000000001366e0       0x24 obj/BigBuf.o
                0x00000000001366e0                BigBuf_calloc
 .text.BigBuf_get_EM_addr
                0x0000000000136704       0x20 obj/BigBuf.o
                0x0000000000136704                BigBuf_get_EM_addr
 .text.BigBuf_Clear_EM
                0x0000000000136724       0x16 obj/BigBuf.o
                0x0000000000136724                BigBuf_Clear_EM
 *fill*         0x000000000013673a        0x2 
 .text.BigBuf_free
                0x000000000013673c       0x34 obj/BigBuf.o
                0x000000000013673c                BigBuf_free
 .text.BigBuf_free_keep_EM
                0x0000000000136770       0x44 obj/BigBuf.o
                0x0000000000136770                BigBuf_free_keep_EM
 .text.BigBuf_print_status
                0x00000000001367b4       0xdc obj/BigBuf.o
                0x00000000001367b4                BigBuf_print_status
 .text.BigBuf_max_traceLen
                0x0000000000136890       0x14 obj/BigBuf.o
                0x0000000000136890                BigBuf_max_traceLen
 .text.clear_trace
                0x00000000001368a4        0xc obj/BigBuf.o
                0x00000000001368a4                clear_trace
 .text.set_tracelen
                0x00000000001368b0        0xc obj/BigBuf.o
                0x00000000001368b0                set_tracelen
 .text.set_tracing
                0x00000000001368bc        0xc obj/BigBuf.o
                0x00000000001368bc                set_tracing
 .text.get_tracing
                0x00000000001368c8        0xc obj/BigBuf.o
                0x00000000001368c8                get_tracing
 .text.BigBuf_get_traceLen
                0x00000000001368d4        0xc obj/BigBuf.o
                0x00000000001368d4                BigBuf_get_traceLen
 .text.LogTrace_ISO15693
                0x00000000001368e0       0x28 obj/BigBuf.o
                0x00000000001368e0                LogTrace_ISO15693
 .text.emlSet   0x0000000000136908       0x38 obj/BigBuf.o
                0x0000000000136908                emlSet
 .text.emlGet   0x0000000000136940       0x38 obj/BigBuf.o
                0x0000000000136940                emlGet
 .text.get_tosend
                0x0000000000136978       0x24 obj/BigBuf.o
                0x0000000000136978                get_tosend
 .text.tosend_reset
                0x000000000013699c       0x14 obj/BigBuf.o
                0x000000000013699c                tosend_reset
 .text.tosend_stuffbit
                0x00000000001369b0       0x68 obj/BigBuf.o
                0x00000000001369b0                tosend_stuffbit
 .text.get_dma16
                0x0000000000136a18       0x20 obj/BigBuf.o
                0x0000000000136a18                get_dma16
 .text.get_dma8
                0x0000000000136a38       0x20 obj/BigBuf.o
                0x0000000000136a38                get_dma8
 .text.SpinDelayUsPrecision
                0x0000000000136a58       0x60 obj/ticks.o
                0x0000000000136a58                SpinDelayUsPrecision
 .text.SpinDelayUs
                0x0000000000136ab8       0x64 obj/ticks.o
                0x0000000000136ab8                SpinDelayUs
 .text.SpinDelay
                0x0000000000136b1c       0x38 obj/ticks.o
                0x0000000000136b1c                SpinDelay
 .text.StartTickCount
                0x0000000000136b54       0x3c obj/ticks.o
                0x0000000000136b54                StartTickCount
 .text.StartCountSspClk
                0x0000000000136b90       0xf0 obj/ticks.o
                0x0000000000136b90                StartCountSspClk
 .text.ResetSspClk
                0x0000000000136c80       0x24 obj/ticks.o
                0x0000000000136c80                ResetSspClk
 .text.StartCountUS
                0x0000000000136ca4       0x58 obj/ticks.o
                0x0000000000136ca4                StartCountUS
 .text.StartTicks
                0x0000000000136cfc       0x60 obj/ticks.o
                0x0000000000136cfc                StartTicks
 .text.GetTicks
                0x0000000000136d5c       0x24 obj/ticks.o
                0x0000000000136d5c                GetTicks
 .text.WaitTicks
                0x0000000000136d80       0x1a obj/ticks.o
                0x0000000000136d80                WaitTicks
 *fill*         0x0000000000136d9a        0x2 
 .text.WaitMS   0x0000000000136d9c       0x18 obj/ticks.o
                0x0000000000136d9c                WaitMS
 .text.WaitUS   0x0000000000136db4       0x16 obj/ticks.o
                0x0000000000136db4                WaitUS
 *fill*         0x0000000000136dca        0x2 
 .text.StopTicks
                0x0000000000136dcc       0x14 obj/ticks.o
                0x0000000000136dcc                StopTicks
 .text.mck_from_pll_to_slck
                0x0000000000136de0       0x28 obj/clocks.o
                0x0000000000136de0                mck_from_pll_to_slck
 .text.mck_from_slck_to_pll
                0x0000000000136e08       0x40 obj/clocks.o
                0x0000000000136e08                mck_from_slck_to_pll
 .text.HfSniff  0x0000000000136e48      0x220 obj/hfsnoop.o
                0x0000000000136e48                HfSniff
 .text.HfPlotDownload
                0x0000000000137068       0xec obj/hfsnoop.o
                0x0000000000137068                HfPlotDownload
 .text.ul_ev1_pwdgenB
                0x0000000000137154       0x3c obj/generator.o
                0x0000000000137154                ul_ev1_pwdgenB
 .text.bitstream_target_to_index
                0x0000000000137190       0x64 obj/fpgaloader.o
 .text.get_from_fpga_combined_stream
                0x00000000001371f4       0xcc obj/fpgaloader.o
 .text.get_from_fpga_stream
                0x00000000001372c0       0x70 obj/fpgaloader.o
 .text.SetupSpi
                0x0000000000137330       0x7c obj/fpgaloader.o
                0x0000000000137330                SetupSpi
 .text.FpgaSetupSsc
                0x00000000001373ac       0x8c obj/fpgaloader.o
                0x00000000001373ac                FpgaSetupSsc
 .text.FpgaSetupSscDma
                0x0000000000137438       0x34 obj/fpgaloader.o
                0x0000000000137438                FpgaSetupSscDma
 .text.FpgaSendCommand
                0x000000000013746c       0x44 obj/fpgaloader.o
                0x000000000013746c                FpgaSendCommand
 .text.FpgaWriteConfWord
                0x00000000001374b0        0xc obj/fpgaloader.o
                0x00000000001374b0                FpgaWriteConfWord
 .text.FpgaEnableTracing
                0x00000000001374bc        0xc obj/fpgaloader.o
                0x00000000001374bc                FpgaEnableTracing
 .text.FpgaDownloadAndGo
                0x00000000001374c8      0x54c obj/fpgaloader.o
                0x00000000001374c8                FpgaDownloadAndGo
 .text.FpgaDisableTracing
                0x0000000000137a14        0xc obj/fpgaloader.o
                0x0000000000137a14                FpgaDisableTracing
 .text.SetAdcMuxFor
                0x0000000000137a20       0x50 obj/fpgaloader.o
                0x0000000000137a20                SetAdcMuxFor
 .text.Fpga_print_status
                0x0000000000137a70       0x44 obj/fpgaloader.o
                0x0000000000137a70                Fpga_print_status
 .text.switch_off
                0x0000000000137ab4       0x60 obj/fpgaloader.o
                0x0000000000137ab4                switch_off
 .text.usb_update_serial
                0x0000000000137b14       0xb8 obj/usb_cdc.o
                0x0000000000137b14                usb_update_serial
 .text.usb_disable
                0x0000000000137bcc       0x28 obj/usb_cdc.o
                0x0000000000137bcc                usb_disable
 .text.usb_enable
                0x0000000000137bf4       0xd4 obj/usb_cdc.o
                0x0000000000137bf4                usb_enable
 .text.usb_available_length
                0x0000000000137cc8       0x20 obj/usb_cdc.o
                0x0000000000137cc8                usb_available_length
 .text.async_usb_write_pushByte
                0x0000000000137ce8       0x20 obj/usb_cdc.o
                0x0000000000137ce8                async_usb_write_pushByte
 .text.async_usb_write_requestWrite
                0x0000000000137d08       0x94 obj/usb_cdc.o
                0x0000000000137d08                async_usb_write_requestWrite
 .text.AT91F_USB_SendData
                0x0000000000137d9c      0x144 obj/usb_cdc.o
                0x0000000000137d9c                AT91F_USB_SendData
 .text.AT91F_USB_SendZlp
                0x0000000000137ee0       0x7c obj/usb_cdc.o
                0x0000000000137ee0                AT91F_USB_SendZlp
 .text.AT91F_USB_SendStall
                0x0000000000137f5c       0x7c obj/usb_cdc.o
                0x0000000000137f5c                AT91F_USB_SendStall
 .text.AT91F_CDC_Enumerate
                0x0000000000137fd8      0x46c obj/usb_cdc.o
                0x0000000000137fd8                AT91F_CDC_Enumerate
 .text.usb_check
                0x0000000000138444       0x84 obj/usb_cdc.o
                0x0000000000138444                usb_check
 .text.usb_poll_validate_length
                0x00000000001384c8       0x50 obj/usb_cdc.o
                0x00000000001384c8                usb_poll_validate_length
 .text.usb_read_ng
                0x0000000000138518      0x1d8 obj/usb_cdc.o
                0x0000000000138518                usb_read_ng
 .text.usb_write
                0x00000000001386f0      0x240 obj/usb_cdc.o
                0x00000000001386f0                usb_write
 .text.async_usb_write_start
                0x0000000000138930       0x4c obj/usb_cdc.o
                0x0000000000138930                async_usb_write_start
 .text.async_usb_write_stop
                0x000000000013897c      0x10c obj/usb_cdc.o
                0x000000000013897c                async_usb_write_stop
 .text.reply_ng_internal
                0x0000000000138a88      0x170 obj/cmd.o
 .text.receive_ng_internal.constprop.0
                0x0000000000138bf8      0x24c obj/cmd.o
 .text.reply_old
                0x0000000000138e44      0x108 obj/cmd.o
                0x0000000000138e44                reply_old
 .text.reply_ng
                0x0000000000138f4c       0x24 obj/cmd.o
                0x0000000000138f4c                reply_ng
 .text.reply_mix
                0x0000000000138f70       0xac obj/cmd.o
                0x0000000000138f70                reply_mix
 .text.reply_reason
                0x000000000013901c       0x28 obj/cmd.o
                0x000000000013901c                reply_reason
 .text.receive_ng
                0x0000000000139044       0x28 obj/cmd.o
                0x0000000000139044                receive_ng
 *fill*         0x000000000013906c        0x4 
 .text.receive_ng.__stub
                0x0000000000139070      0x1dc linker stubs
 *(.eh_frame)
 *(.glue_7)
 .glue_7        0x0000000000139288        0x0 linker stubs
 *(.glue_7t)
 .glue_7t       0x0000000000139288        0x0 linker stubs

.vfp11_veneer   0x0000000000139288        0x0
 .vfp11_veneer  0x0000000000139288        0x0 linker stubs

.v4_bx          0x0000000000139288        0x0
 .v4_bx         0x0000000000139288        0x0 linker stubs

.iplt           0x0000000000139288        0x0
 .iplt          0x0000000000139288        0x0 obj/fpga_version_info.o

.rel.dyn        0x0000000000139288        0x0
 .rel.iplt      0x0000000000139288        0x0 obj/fpga_version_info.o

.rodata         0x0000000000139288    0x22260
 *(.rodata)
 .rodata        0x0000000000139288       0x4b obj/iso15693.o
 .rodata        0x00000000001392d3       0xc0 obj/lfops.o
 .rodata        0x0000000000139393        0x9 obj/lfsampling.o
 .rodata        0x000000000013939c       0x19 obj/pcf7931.o
 *fill*         0x00000000001393b5        0x1 
 .rodata        0x00000000001393b6      0x11e obj/lfdemod.o
 .rodata        0x00000000001394d4        0x8 obj/flashmem.o
 .rodata        0x00000000001394dc      0x183 obj/i2c.o
 .rodata        0x000000000013965f        0x5 obj/hitag2.o
 .rodata        0x0000000000139664        0x3 obj/em4x70.o
 .rodata        0x0000000000139667       0x9e obj/iso14443a.o
 .rodata        0x0000000000139705       0x1e obj/mifareutil.o
 .rodata        0x0000000000139723       0xad obj/mifarecmd.o
 .rodata        0x00000000001397d0        0x3 obj/mifaresim.o
 .rodata        0x00000000001397d3       0x32 obj/iso14443b.o
 .rodata        0x0000000000139805       0x35 obj/mifaredesfire.o
 .rodata        0x000000000013983a       0x25 obj/iclass.o
 .rodata        0x000000000013985f        0x8 obj/optimized_ikeys.o
 .rodata        0x0000000000139867        0x8 obj/optimized_cipher.o
 .rodata        0x000000000013986f       0x13 obj/sam_picopass.o
 .rodata        0x0000000000139882       0x92 obj/felica.o
 *(.rodata.*)
 .rodata.str1.1
                0x0000000000139914       0xd7 obj/fpga_version_info.o
 *fill*         0x00000000001399eb        0x1 
 .rodata.g_fpga_bitstream_num
                0x00000000001399ec        0x4 obj/fpga_version_info.o
                0x00000000001399ec                g_fpga_bitstream_num
 .rodata.g_fpga_version_information
                0x00000000001399f0       0x20 obj/fpga_version_info.o
                0x00000000001399f0                g_fpga_version_information
 .rodata.GetIso15693AnswerFromTag.str1.1
                0x0000000000139a10       0x33 obj/iso15693.o
 .rodata.GetIso15693CommandFromReader.str1.1
                0x0000000000139a43       0x35 obj/iso15693.o
 .rodata.AcquireRawAdcSamplesIso15693.str1.1
                0x0000000000139a78       0x1c obj/iso15693.o
 .rodata.SniffIso15693.str1.1
                0x0000000000139a94      0x17f obj/iso15693.o
                                        0x180 (size before relaxing)
 .rodata.ReaderIso15693.str1.1
                0x0000000000139c13      0x156 obj/iso15693.o
                                        0x15b (size before relaxing)
 .rodata.SimTagIso15693.str1.1
                0x0000000000139d69      0x3a6 obj/iso15693.o
 .rodata.BruteforceIso15693Afi.str1.1
                0x000000000013a10f       0x39 obj/iso15693.o
 .rodata.SendRawCommand15693.cst2
                0x000000000013a148        0x2 obj/iso15693.o
 .rodata.encode15_lut
                0x000000000013a14a        0x4 obj/iso15693.o
 .rodata.encode_4bits
                0x000000000013a14e       0x10 obj/iso15693.o
 .rodata.iso15693_sprintUID.str1.1
                0x000000000013a15e       0x39 obj/iso15693tools.o
                                         0x28 (size before relaxing)
 .rodata.SimulateThinFilm.str1.1
                0x000000000013a15e       0x26 obj/thinfilm.o
 .rodata.T55xx_SetBits.str1.1
                0x000000000013a184       0x1b obj/lfops.o
 .rodata.printT55xxConfig.str1.1
                0x000000000013a19f      0x1e8 obj/lfops.o
                                        0x1f0 (size before relaxing)
 .rodata.setT55xxConfig.str1.1
                0x000000000013a387       0x23 obj/lfops.o
 .rodata.loadT55xxConfig.str1.1
                0x000000000013a3aa       0x1a obj/lfops.o
 .rodata.ReadTItag.str1.1
                0x000000000013a3c4       0xd7 obj/lfops.o
 .rodata.WriteTItag.str1.1
                0x000000000013a49b       0x3f obj/lfops.o
 .rodata.CmdFSKsimTAGEx.str1.1
                0x000000000013a4da       0x3f obj/lfops.o
 .rodata.CmdHIDsimTAGEx.str1.1
                0x000000000013a519       0x5c obj/lfops.o
 .rodata.CmdASKsimTAG.str1.1
                0x000000000013a575       0x8f obj/lfops.o
 .rodata.CmdPSKsimTAG.str1.1
                0x000000000013a604       0x32 obj/lfops.o
 .rodata.CmdNRZsimTAG.str1.1
                0x000000000013a636       0x39 obj/lfops.o
 .rodata.lf_hid_watch.str1.1
                0x000000000013a66f       0x82 obj/lfops.o
 .rodata.lf_awid_watch.str1.1
                0x000000000013a6f1      0x12e obj/lfops.o
 .rodata.lf_em410x_watch.str1.1
                0x000000000013a81f      0x10d obj/lfops.o
 .rodata.lf_io_watch.str1.1
                0x000000000013a92c       0x34 obj/lfops.o
 .rodata.ModThenAcquireRawAdcSamples125k.str1.1
                0x000000000013a960       0x3d obj/lfops.o
 .rodata.T55xx_SendCMD.str1.1
                0x000000000013a99d       0x19 obj/lfops.o
 .rodata.T55xxDangerousRawTest.str1.1
                0x000000000013a9b6       0x1b obj/lfops.o
 .rodata.T55xx_ChkPwds.str1.1
                0x000000000013a9d1       0xa8 obj/lfops.o
 .rodata.EM4xBruteforce.str1.1
                0x000000000013aa79       0x7f obj/lfops.o
                                         0x81 (size before relaxing)
 .rodata.WriteEM4x05.str1.1
                0x000000000013aaf8       0x32 obj/lfops.o
 .rodata.CopyHIDtoT55x7.str1.1
                0x000000000013ab2a       0x58 obj/lfops.o
 .rodata.copy_em410x_to_t55xx.str1.1
                0x000000000013ab82       0x6c obj/lfops.o
 .rodata.printLFConfig.str1.1
                0x000000000013abee       0xf1 obj/lfsampling.o
                                         0xf2 (size before relaxing)
 .rodata.printSamples.str1.1
                0x000000000013acdf       0x6a obj/lfsampling.o
 .rodata.DoAcquisition.str1.1
                0x000000000013ad49       0x86 obj/lfsampling.o
 .rodata.def_config
                0x000000000013adcf        0xc obj/lfsampling.o
 .rodata.DemodPCF7931.str1.1
                0x000000000013addb       0x2b obj/pcf7931.o
 .rodata.ReadPCF7931.str1.1
                0x000000000013ae06      0x145 obj/pcf7931.o
                                        0x16f (size before relaxing)
 .rodata.SendCmdPCF7931.str1.1
                0x000000000013af4b       0x16 obj/pcf7931.o
 .rodata.WritePCF7931.str1.1
                0x000000000013af61       0xe3 obj/pcf7931.o
 .rodata.getClosestClock.str1.1
                0x000000000013b044        0xc obj/lfdemod.o
 .rodata.findModStart.str1.1
                0x000000000013b050       0x37 obj/lfdemod.o
 .rodata.computeSignalProperties.str1.1
                0x000000000013b087       0xb2 obj/lfdemod.o
 .rodata.preambleSearchEx.str1.1
                0x000000000013b139       0x62 obj/lfdemod.o
 .rodata.DetectCleanAskWave.str1.1
                0x000000000013b19b       0x29 obj/lfdemod.o
 .rodata.DetectStrongAskClock.str1.1
                0x000000000013b1c4       0x2a obj/lfdemod.o
 .rodata.DetectASKClock.str1.1
                0x000000000013b1ee       0xf8 obj/lfdemod.o
 .rodata.manrawdecode.str1.1
                0x000000000013b2e6       0x2c obj/lfdemod.o
 .rodata.askdemod_ext.str1.1
                0x000000000013b312      0x235 obj/lfdemod.o
 .rodata.fskdemod.str1.1
                0x000000000013b547       0xcc obj/lfdemod.o
 .rodata.lf_sample_mean.str1.1
                0x000000000013b613       0x12 obj/lfadc.o
 *fill*         0x000000000013b625        0x3 
 .rodata.dec64table
                0x000000000013b628       0x20 obj/lz4.o
 .rodata.inc32table
                0x000000000013b648       0x20 obj/lz4.o
 .rodata.read_byte.str1.1
                0x000000000013b668       0x1f obj/legicrf.o
 .rodata.LegicRfWriter.str1.1
                0x000000000013b687       0x26 obj/legicrf.o
 .rodata.LegicRfSimulate.str1.1
                0x000000000013b6ad       0xa4 obj/legicrfsim.o
                                         0xc3 (size before relaxing)
 .rodata.FlashmemSetSpiBaudrate.str1.1
                0x000000000013b751       0x15 obj/flashmem.o
 .rodata.FlashStop.str1.1
                0x000000000013b766        0xa obj/flashmem.o
 .rodata.FlashDetect.str1.1
                0x000000000013b770       0x54 obj/flashmem.o
 .rodata.Flashmem_print_info.str1.1
                0x000000000013b7c4       0xd6 obj/flashmem.o
 .rodata.Flashmem_print_status.str1.1
                0x000000000013b89a      0x1bc obj/flashmem.o
 .rodata.Flash_WriteDataCont.str1.1
                0x000000000013ba56       0x64 obj/flashmem.o
 .rodata.Flash_WriteEnable.str1.1
                0x000000000013baba       0x14 obj/flashmem.o
 .rodata.Flash_WipeMemoryPage.str1.1
                0x000000000013bace       0x1a obj/flashmem.o
 .rodata.hitag2_write_page.str1.1
                0x000000000013bae8       0xc1 obj/hitag2.o
 .rodata.hitag2_password.str1.1
                0x000000000013bba9       0x35 obj/hitag2.o
 .rodata.hitag2_crypto.str1.1
                0x000000000013bbde       0x65 obj/hitag2.o
 .rodata.SniffHitag2.str1.1
                0x000000000013bc43       0x3f obj/hitag2.o
 .rodata.SimulateHitag2.str1.1
                0x000000000013bc82      0x117 obj/hitag2.o
 .rodata.ReaderHitag.str1.1
                0x000000000013bd99      0x43c obj/hitag2.o
 .rodata.WriterHitag.str1.1
                0x000000000013c1d5       0xbb obj/hitag2.o
 .rodata.ht2_packbits.str1.1
                0x000000000013c290       0xbb obj/hitag2.o
                                          0x6 (size before relaxing)
 .rodata.ht2_read_uid.str1.1
                0x000000000013c290        0x2 obj/hitag2.o
 .rodata.hts_send_receive.constprop.0.str1.1
                0x000000000013c290       0xb8 obj/hitagS.o
 .rodata.hts_select_tag.constprop.0.str1.1
                0x000000000013c348       0xe6 obj/hitagS.o
                                        0x14d (size before relaxing)
 .rodata.hts_simulate.str1.1
                0x000000000013c42e      0x133 obj/hitagS.o
                                        0x13f (size before relaxing)
 .rodata.hts_read.str1.1
                0x000000000013c561       0xb2 obj/hitagS.o
 .rodata.hts_write_page.str1.1
                0x000000000013c613       0x59 obj/hitagS.o
 .rodata.hts_read_uid.str1.1
                0x000000000013c66c       0x14 obj/hitagS.o
 .rodata.hts_check_challenges.str1.1
                0x000000000013c680       0x58 obj/hitagS.o
                                         0x60 (size before relaxing)
 .rodata.ht2_crack2.str1.1
                0x000000000013c6d8       0x86 obj/hitag2_crack.o
 .rodata.read_p0_cmd
                0x000000000013c75e        0xa obj/hitag2_crack.o
 .rodata.login.str1.1
                0x000000000013c768       0x19 obj/em4x50.o
 .rodata.em4x50_brute.str1.1
                0x000000000013c781       0x65 obj/em4x50.o
 .rodata.standard_read.str1.1
                0x000000000013c7e6       0x1c obj/em4x50.o
 .rodata.encoded_bit_array_to_bytes.str1.1
                0x000000000013c802       0x2e obj/em4x70.o
 .rodata.em4x70_receive.str1.1
                0x000000000013c830       0x1b obj/em4x70.o
 .rodata.send_command_and_read.str1.1
                0x000000000013c84b       0x2e obj/em4x70.o
 .rodata.send_pin.str1.1
                0x000000000013c879       0x14 obj/em4x70.o
 .rodata.authenticate.str1.1
                0x000000000013c88d        0xc obj/em4x70.o
 .rodata.em4x70_write.str1.1
                0x000000000013c899       0x59 obj/em4x70.o
 .rodata.em4x70_auth.str1.1
                0x000000000013c8f2       0x58 obj/em4x70.o
 .rodata.em4x70_brute.str1.1
                0x000000000013c94a       0xdd obj/em4x70.o
 .rodata.em4x70_write_pin.str1.1
                0x000000000013ca27       0x5a obj/em4x70.o
 .rodata.em4x70_write_key.str1.1
                0x000000000013ca81       0x5a obj/em4x70.o
 .rodata.rdv40_spiffs_llerase.str1.1
                0x000000000013cadb       0x63 obj/spiffs.o
 .rodata.remove_from_spiffs.str1.1
                0x000000000013cb3e       0x63 obj/spiffs.o
                                          0xa (size before relaxing)
 .rodata.rdv40_spiffs_mount.str1.1
                0x000000000013cb3e       0x1e obj/spiffs.o
 .rodata.rdv40_spiffs_unmount.str1.1
                0x000000000013cb5c       0x1a obj/spiffs.o
 .rodata.write_to_spiffs.str1.1
                0x000000000013cb76        0xd obj/spiffs.o
 .rodata.rdv40_spiffs_read_as_symlink.str1.1
                0x000000000013cb83       0x4c obj/spiffs.o
 .rodata.rdv40_spiffs_read_as_filetype.str1.1
                0x000000000013cbcf       0xc6 obj/spiffs.o
 .rodata.rdv40_spiffs_safe_print_fsinfo.str1.1
                0x000000000013cc95      0x175 obj/spiffs.o
                                        0x176 (size before relaxing)
 .rodata.rdv40_spiffs_safe_print_tree.str1.1
                0x000000000013ce0a       0x35 obj/spiffs.o
                                         0x3c (size before relaxing)
 .rodata.rdv40_spiffs_safe_wipe.str1.1
                0x000000000013ce3f       0x10 obj/spiffs.o
                                         0x1b (size before relaxing)
 .rodata.test_spiffs.str1.1
                0x000000000013ce4f      0x174 obj/spiffs.o
                                        0x1b2 (size before relaxing)
 .rodata.HfSimulateTkm.str1.1
                0x000000000013cfc3       0x22 obj/hfops.o
 .rodata.printHf14aConfig.str1.1
                0x000000000013cfe5      0x25e obj/iso14443a.o
                                        0x25f (size before relaxing)
 .rodata.GetIso14443aAnswerFromTag.str1.1
                0x000000000013d243       0x19 obj/iso14443a.o
 .rodata.prepare_tag_modulation.str1.1
                0x000000000013d25c       0x42 obj/iso14443a.o
 .rodata.SimulateIso14443aInit.str1.1
                0x000000000013d29e       0xa2 obj/iso14443a.o
 .rodata.EmGetCmd.str1.1
                0x000000000013d340       0x68 obj/iso14443a.o
 .rodata.iso14443a_select_cardEx.str1.1
                0x000000000013d3a8      0x137 obj/iso14443a.o
 .rodata.str1.1
                0x000000000013d4df       0x62 obj/iso14443a.o
                                         0xae (size before relaxing)
 .rodata.SimulateIso14443aTag.str1.1
                0x000000000013d541      0x164 obj/iso14443a.o
 .rodata.iso14443a_antifuzz.str1.1
                0x000000000013d6a5       0x63 obj/iso14443a.o
 .rodata.iso14443a_antifuzz.cst1
                0x000000000013d708        0x2 obj/iso14443a.o
 .rodata.ReaderIso14443a.str1.1
                0x000000000013d70a        0xf obj/iso14443a.o
                                         0x1a (size before relaxing)
 .rodata.ReaderMifare.str1.1
                0x000000000013d719      0x182 obj/iso14443a.o
 .rodata.DetectNACKbug.str1.1
                0x000000000013d89b       0x83 obj/iso14443a.o
 .rodata.SimulateIso14443aTagAID.str1.1
                0x000000000013d91e       0x13 obj/iso14443a.o
 .rodata.Mod_Manchester_LUT
                0x000000000013d931       0x10 obj/iso14443a.o
 .rodata.Mod_Miller_LUT
                0x000000000013d941       0x10 obj/iso14443a.o
 .rodata.g_odd_byte_parity
                0x000000000013d951      0x100 obj/iso14443a.o
 .rodata.mifare_sendcmd.str1.1
                0x000000000013da51       0x1f obj/mifareutil.o
 .rodata.mifare_sendcmd_short.str1.1
                0x000000000013da70        0x1 obj/mifareutil.o
 .rodata.mifare_ultra_readblockEx.str1.1
                0x000000000013da70       0x49 obj/mifareutil.o
 .rodata.mifare_classic_readblock_ex.str1.1
                0x000000000013dab9       0x8e obj/mifareutil.o
 .rodata.mifare_ul_ev1_auth.str1.1
                0x000000000013db47       0x4b obj/mifareutil.o
 .rodata.mifare_ultra_auth.str1.1
                0x000000000013db92       0xfd obj/mifareutil.o
                                        0x131 (size before relaxing)
 .rodata.mifare_ultra_aes_auth.str1.1
                0x000000000013dc8f       0x57 obj/mifareutil.o
                                         0x5a (size before relaxing)
 .rodata.mifare_classic_writeblock_ex.str1.1
                0x000000000013dce6       0x1b obj/mifareutil.o
 .rodata.mifare_ultra_writeblock_compat.str1.1
                0x000000000013dd01       0x35 obj/mifareutil.o
 .rodata.mifare_classic_halt.str1.1
                0x000000000013dd36       0x1f obj/mifareutil.o
 .rodata.emlClearMem.str1.1
                0x000000000013dd55       0x11 obj/mifareutil.o
 .rodata.SectorTrailer.str1.1
                0x000000000013dd66       0x21 obj/mifareutil.o
 .rodata.mifare_classic_authex_cmd.str1.1
                0x000000000013dd87      0x162 obj/mifareutil.o
                                        0x164 (size before relaxing)
 .rodata.g_odd_byte_parity
                0x000000000013dee9      0x100 obj/mifareutil.o
 .rodata.mifare_wakeup_auth.str1.1
                0x000000000013dfe9       0x52 obj/mifarecmd.o
                                         0x6f (size before relaxing)
 .rodata.chkKey.str1.1
                0x000000000013e03b       0x2b obj/mifarecmd.o
 .rodata.MifareECardLoad.part.0.str1.1
                0x000000000013e066       0x59 obj/mifarecmd.o
 .rodata.chkKey_scanB.constprop.0.str1.1
                0x000000000013e0bf       0x20 obj/mifarecmd.o
 .rodata.chkKey_loopBonly.constprop.0.str1.1
                0x000000000013e0df       0x23 obj/mifarecmd.o
 .rodata.chkKey_scanA.constprop.0.str1.1
                0x000000000013e102       0x20 obj/mifarecmd.o
 .rodata.mifare_cmd_readblocks.str1.1
                0x000000000013e122       0x11 obj/mifarecmd.o
                                         0x1c (size before relaxing)
 .rodata.mifare_cmd_writeblocks.str1.1
                0x000000000013e133       0x12 obj/mifarecmd.o
 .rodata.MifareUC_Auth.str1.1
                0x000000000013e145       0x16 obj/mifarecmd.o
 .rodata.MifareUReadBlock.str1.1
                0x000000000013e15b       0x1c obj/mifarecmd.o
 .rodata.MifareUReadCard.str1.1
                0x000000000013e177       0x61 obj/mifarecmd.o
 .rodata.MifareValue.str1.1
                0x000000000013e1d8       0x43 obj/mifarecmd.o
 .rodata.MifareAcquireNonces.str1.1
                0x000000000013e21b       0x80 obj/mifarecmd.o
                                         0x81 (size before relaxing)
 .rodata.MifareAcquireEncryptedNonces.str1.1
                0x000000000013e29b       0xec obj/mifarecmd.o
 .rodata.MifareAcquireStaticEncryptedNonces.str1.1
                0x000000000013e387      0x126 obj/mifarecmd.o
 .rodata.MifareNested.str1.1
                0x000000000013e4ad      0x189 obj/mifarecmd.o
 .rodata.MifareChkKeys.str1.1
                0x000000000013e636       0x42 obj/mifarecmd.o
 .rodata.MifarePersonalizeUID.str1.1
                0x000000000013e678       0x10 obj/mifarecmd.o
 .rodata.MifareECardLoad.str1.1
                0x000000000013e678       0x13 obj/mifarecmd.o
 .rodata.MifareChkKeys_fast.str1.1
                0x000000000013e68b       0x26 obj/mifarecmd.o
 .rodata.MifareHasStaticNonce.str1.1
                0x000000000013e6b1       0x24 obj/mifarecmd.o
                                         0x26 (size before relaxing)
 .rodata.MifareHasStaticEncryptedNonce.str1.1
                0x000000000013e6d5       0x5c obj/mifarecmd.o
                                         0x63 (size before relaxing)
 .rodata.MifareCSetBlock.str1.1
                0x000000000013e731       0x47 obj/mifarecmd.o
 .rodata.MifareCGetBlock.str1.1
                0x000000000013e778       0x1e obj/mifarecmd.o
 .rodata.DoGen3Cmd.str1.1
                0x000000000013e796       0x1d obj/mifarecmd.o
 .rodata.MifareGen3UID.str1.1
                0x000000000013e7b3       0x17 obj/mifarecmd.o
 .rodata.MifareGen3Blk.str1.1
                0x000000000013e7ca       0x3b obj/mifarecmd.o
 .rodata.MifareSetMod.str1.1
                0x000000000013e805       0x29 obj/mifarecmd.o
 .rodata.MifareU_Otp_Tearoff.str1.1
                0x000000000013e82e       0x17 obj/mifarecmd.o
 .rodata.CSWTCH.401
                0x000000000013e845        0x7 obj/mifarecmd.o
 .rodata.g_odd_byte_parity
                0x000000000013e84c      0x100 obj/mifarecmd.o
 .rodata.EPA_Setup.str1.1
                0x000000000013e94c       0x30 obj/epa.o
 .rodata.EPA_Read_CardAccess.str1.1
                0x000000000013e97c       0x3e obj/epa.o
 .rodata.EPA_PACE_Collect_Nonce.str1.1
                0x000000000013e9ba       0x12 obj/epa.o
 .rodata.EPA_PACE_Simulate.str1.1
                0x000000000013e9cc       0x22 obj/epa.o
                                         0x2c (size before relaxing)
 .rodata.apdu_general_authenticate_pace_get_nonce
                0x000000000013e9ee        0x7 obj/epa.o
 .rodata.apdu_mse_set_at_start
                0x000000000013e9f5        0x4 obj/epa.o
 .rodata.apdu_read_binary
                0x000000000013e9f9        0x5 obj/epa.o
 .rodata.apdu_select_binary_cardaccess
                0x000000000013e9fe        0x7 obj/epa.o
 *fill*         0x000000000013ea05        0x3 
 .rodata.apdus_replay
                0x000000000013ea08       0x28 obj/epa.o
 .rodata.oid_pace_start
                0x000000000013ea30        0x8 obj/epa.o
 .rodata.pps    0x000000000013ea38        0x5 obj/epa.o
 .rodata.IsAccessAllowed.str1.1
                0x000000000013ea3d      0x1fb obj/mifaresim.o
 .rodata.Mifare1ksim.str1.1
                0x000000000013ec38      0xecf obj/mifaresim.o
                                        0xf32 (size before relaxing)
 .rodata.g_odd_byte_parity
                0x000000000013fb07      0x100 obj/mifaresim.o
 .rodata.iso14b_set_timeout.str1.1
                0x000000000013fc07       0x21 obj/iso14443b.o
 .rodata.iso14b_set_fwt.str1.1
                0x000000000013fc28       0x25 obj/iso14443b.o
 .rodata.Get14443bAnswerFromTag.str1.1
                0x000000000013fc4d       0x25 obj/iso14443b.o
                                         0x28 (size before relaxing)
 .rodata.SimulateIso14443bTag.str1.1
                0x000000000013fc4d       0x25 obj/iso14443b.o
                                         0x49 (size before relaxing)
 .rodata.iso14443b_select_card.str1.1
                0x000000000013fc72       0x29 obj/iso14443b.o
 .rodata.SniffIso14443b.str1.1
                0x000000000013fc9b       0xdb obj/iso14443b.o
                                        0x144 (size before relaxing)
 .rodata.SendRawCommand14443B.str1.1
                0x000000000013fd76       0x56 obj/iso14443b.o
 .rodata.init_srx.5
                0x000000000013fdcc        0x4 obj/iso14443b.o
 .rodata.respOK.7
                0x000000000013fdd0        0x3 obj/iso14443b.o
 .rodata.wupb.6
                0x000000000013fdd3        0x5 obj/iso14443b.o
 .rodata.x_wup1.4
                0x000000000013fdd8        0x5 obj/iso14443b.o
 .rodata.x_wup2.3
                0x000000000013fddd        0x5 obj/iso14443b.o
 *fill*         0x000000000013fde2        0x2 
 .rodata.LHs    0x000000000013fde4       0x40 obj/des.o
 .rodata.RHs    0x000000000013fe24       0x40 obj/des.o
 .rodata.SB1    0x000000000013fe64      0x100 obj/des.o
 .rodata.SB2    0x000000000013ff64      0x100 obj/des.o
 .rodata.SB3    0x0000000000140064      0x100 obj/des.o
 .rodata.SB4    0x0000000000140164      0x100 obj/des.o
 .rodata.SB5    0x0000000000140264      0x100 obj/des.o
 .rodata.SB6    0x0000000000140364      0x100 obj/des.o
 .rodata.SB7    0x0000000000140464      0x100 obj/des.o
 .rodata.SB8    0x0000000000140564      0x100 obj/des.o
 .rodata.CreateAPDU.str1.1
                0x0000000000140664       0x17 obj/mifaredesfire.o
 .rodata.DesfireAPDU.str1.1
                0x000000000014067b       0x12 obj/mifaredesfire.o
 .rodata.OnSuccess.str1.1
                0x000000000014068d        0xb obj/mifaredesfire.o
 .rodata.MifareDesfireGetInformation.str1.1
                0x000000000014068d      0x14f obj/mifaredesfire.o
                                        0x161 (size before relaxing)
 .rodata.MifareSendCommand.str1.1
                0x00000000001407dc       0x31 obj/mifaredesfire.o
 .rodata.MifareDES_Auth1.str1.1
                0x000000000014080d      0x13e obj/mifaredesfire.o
                                        0x146 (size before relaxing)
 .rodata.FSb    0x000000000014094b      0x100 obj/aes.o
 *fill*         0x0000000000140a4b        0x1 
 .rodata.FT0    0x0000000000140a4c      0x400 obj/aes.o
 .rodata.RCON   0x0000000000140e4c       0x28 obj/aes.o
 .rodata.RSb    0x0000000000140e74      0x100 obj/aes.o
 .rodata.RT0    0x0000000000140f74      0x400 obj/aes.o
 .rodata.do_iclass_simulation.str1.1
                0x0000000000141374       0xa8 obj/iclass.o
                                         0xb7 (size before relaxing)
 .rodata.iclass_simulate.str1.1
                0x000000000014141c       0x90 obj/iclass.o
 .rodata.iclass_writeblock_ext.str1.1
                0x00000000001414ac        0x9 obj/iclass.o
 .rodata.iClass_Dump.str1.1
                0x00000000001414b5       0x3a obj/iclass.o
 .rodata.iClass_Restore.str1.1
                0x00000000001414ef       0x56 obj/iclass.o
 .rodata.iClass_Recover.str1.1
                0x0000000000141545      0x6e6 obj/iclass.o
 .rodata.pi     0x0000000000141c2b       0x23 obj/optimized_ikeys.o
 .rodata.opt_select_LUT
                0x0000000000141c4e      0x100 obj/optimized_cipher.o
 .rodata.sam_rxtx.str1.1
                0x0000000000141d4e       0x9f obj/sam_picopass.o
 .rodata.sam_picopass_get_pacs.str1.1
                0x0000000000141ded      0x2c3 obj/sam_picopass.o
 .rodata.felica_sendraw.str1.1
                0x00000000001420b0       0x92 obj/felica.o
 .rodata.felica_sniff.str1.1
                0x0000000000142142       0x67 obj/felica.o
 .rodata.felica_sim_lite.str1.1
                0x00000000001421a9       0x84 obj/felica.o
 .rodata.ModInfo.str1.1
                0x000000000014222d       0x32 obj/lf_samyrun.o
 .rodata.RunMod.str1.1
                0x000000000014225f      0x110 obj/lf_samyrun.o
 .rodata.print_debug_level.str1.1
                0x000000000014236f       0x3d obj/appmain.o
                                         0x4c (size before relaxing)
 .rodata.tearoff_hook.str1.1
                0x00000000001423ac       0x44 obj/appmain.o
 .rodata.print_stack_usage.str1.1
                0x00000000001423f0       0x29 obj/appmain.o
 .rodata.SendStatus.str1.1
                0x0000000000142419      0x1c0 obj/appmain.o
                                        0x1c1 (size before relaxing)
 .rodata.ReadMem.str1.1
                0x00000000001425d9       0x2c obj/appmain.o
 .rodata.StandAloneMode.str1.1
                0x0000000000142605       0x28 obj/appmain.o
 .rodata.ListenReaderField.str1.1
                0x000000000014262d       0x97 obj/appmain.o
 .rodata.AppMain.str1.1
                0x00000000001426c4      0x3db obj/appmain.o
 .rodata.kvsprintf.str1.1
                0x0000000000142a9f       0x13 obj/printf.o
 .rodata.hex2ascii_data
                0x0000000000142ab2       0x25 obj/printf.o
 .rodata.Dbhexdump.str1.1
                0x0000000000142ad7        0x9 obj/dbprint.o
                                          0xf (size before relaxing)
 .rodata.print_result.str1.1
                0x0000000000142ae0       0x79 obj/dbprint.o
 .rodata.BUTTON_HELD.str1.1
                0x0000000000142b59       0x32 obj/util.o
 *fill*         0x0000000000142b8b        0x1 
 .rodata.CSWTCH.51
                0x0000000000142b8c       0x34 obj/util.o
 .rodata.BigBuf_Clear_ext.str1.1
                0x0000000000142bc0       0x1a obj/BigBuf.o
 .rodata.BigBuf_print_status.str1.1
                0x0000000000142bda      0x10c obj/BigBuf.o
 .rodata.emlSet.str1.1
                0x0000000000142ce6       0x40 obj/BigBuf.o
 .rodata.emlGet.str1.1
                0x0000000000142d26       0x41 obj/BigBuf.o
 .rodata.tosend_stuffbit.str1.1
                0x0000000000142d67       0x19 obj/BigBuf.o
 .rodata.SpinDelay.str1.1
                0x0000000000142d80       0x30 obj/ticks.o
 .rodata.HfSniff.str1.1
                0x0000000000142db0       0x68 obj/hfsnoop.o
 .rodata.get_from_fpga_combined_stream.str1.1
                0x0000000000142e18       0x15 obj/fpgaloader.o
 .rodata.FpgaDownloadAndGo.str1.1
                0x0000000000142e2d       0x1d obj/fpgaloader.o
 .rodata.Fpga_print_status.str1.1
                0x0000000000142e4a       0x3a obj/fpgaloader.o
 .rodata.switch_off.str1.1
                0x0000000000142e84        0xb obj/fpgaloader.o
 .rodata.bitparse_fixed_header
                0x0000000000142e8f        0xd obj/fpgaloader.o
 .rodata.StrLanguageCodes
                0x0000000000142e9c        0x4 obj/usb_cdc.o
 .rodata.StrMS_OSDescriptor
                0x0000000000142ea0       0x12 obj/usb_cdc.o
 .rodata.StrManufacturer
                0x0000000000142eb2       0x1a obj/usb_cdc.o
 .rodata.StrProduct
                0x0000000000142ecc       0x14 obj/usb_cdc.o
 .rodata.bosDescriptor
                0x0000000000142ee0        0xc obj/usb_cdc.o
 .rodata.cfgDescriptor
                0x0000000000142eec       0x43 obj/usb_cdc.o
 .rodata.devDescriptor
                0x0000000000142f2f       0x12 obj/usb_cdc.o
 *(fpga_all_bit.data)
 fpga_all_bit.data
                0x0000000000142f41    0x185a3 obj/fpga_all.o
                0x0000000000142f41                _binary_obj_fpga_all_bit_z_start
                0x000000000015b4e4                _binary_obj_fpga_all_bit_z_end
                0x000000000015b4e8                . = ALIGN (0x8)
 *fill*         0x000000000015b4e4        0x4 

.ARM.exidx      0x000000000015b4e8        0x8
 .ARM.exidx     0x000000000015b4e8        0x8 /usr/local/Cellar/arm-none-eabi-gcc/10.3-2021.10/gcc/bin/../lib/gcc/arm-none-eabi/10.3.1/libgcc.a(_udivmoddi4.o)

.data           0x0000000000200000     0x2d48 load address 0x000000000015b4f0
 *(.data)
 *(.data.*)
 .data.T55xx_Timing
                0x0000000000200000       0x38 obj/lfops.o
 .data.config   0x0000000000200038        0xc obj/lfsampling.o
 .data.signalprop
                0x0000000000200044       0x14 obj/lfdemod.o
 .data.g_logging
                0x0000000000200058        0x1 obj/lfadc.o
                0x0000000000200058                g_logging
 *fill*         0x0000000000200059        0x3 
 .data.input_threshold
                0x000000000020005c        0x4 obj/legicrf.o
 .data.FLASHMEM_SPIBAUDRATE
                0x0000000000200060        0x4 obj/flashmem.o
 .data.spi_flash_pages64k
                0x0000000000200064        0x1 obj/flashmem.o
                0x0000000000200064                spi_flash_pages64k
 *fill*         0x0000000000200065        0x3 
 .data.auth_table_len
                0x0000000000200068        0x4 obj/hitag2.o
 *fill*         0x000000000020006c        0x4 
 .data.tag      0x0000000000200070       0x48 obj/hitag2.o
 .data.protocol_mode
                0x00000000002000b8        0x1 obj/hitagS.o
 .data.rnd      0x00000000002000b9        0x4 obj/hitagS.o
 .data.tag      0x00000000002000bd      0x106 obj/hitagS.o
 .data.g_High   0x00000000002001c3        0x1 obj/em4x50.o
                0x00000000002001c3                g_High
 .data.g_Low    0x00000000002001c4        0x1 obj/em4x50.o
                0x00000000002001c4                g_Low
 .data.charset_digits
                0x00000000002001c5        0xa obj/bruteforce.o
                0x00000000002001c5                charset_digits
 .data.charset_uppercase
                0x00000000002001cf       0x19 obj/bruteforce.o
                0x00000000002001cf                charset_uppercase
 .data.smart_generators
                0x00000000002001e8       0x10 obj/bruteforce.o
                0x00000000002001e8                smart_generators
 .data.command_parity
                0x00000000002001f8        0x1 obj/em4x70.o
 .data.REQA_POLLING_PARAMETERS
                0x00000000002001f9       0xab obj/iso14443a.o
                0x00000000002001f9                REQA_POLLING_PARAMETERS
 .data.WUPA_POLLING_PARAMETERS
                0x00000000002002a4       0xab obj/iso14443a.o
                0x00000000002002a4                WUPA_POLLING_PARAMETERS
 .data.rPPS.9   0x000000000020034f        0x3 obj/iso14443a.o
 .data.rRATS.16
                0x0000000000200352       0x28 obj/iso14443a.o
 .data.responses_init.7
                0x000000000020037a       0xcc obj/iso14443a.o
 .data.wipeC    0x0000000000200446        0x1 obj/mifarecmd.o
 .data.wupC1    0x0000000000200447        0x1 obj/mifarecmd.o
 .data.wupC2    0x0000000000200448        0x1 obj/mifarecmd.o
 .data.wupGDM1  0x0000000000200449        0x1 obj/mifarecmd.o
 .data.wupGDM2  0x000000000020044a        0x1 obj/mifarecmd.o
 .data.rATQA_1k.26
                0x000000000020044b        0x2 obj/mifaresim.o
 .data.rATQA_2k.21
                0x000000000020044d        0x2 obj/mifaresim.o
 .data.rATQA_4k.18
                0x000000000020044f        0x2 obj/mifaresim.o
 .data.rATQA_Mini.23
                0x0000000000200451        0x2 obj/mifaresim.o
 .data.rRATS.19
                0x0000000000200453        0xe obj/mifaresim.o
 .data.rSAKuid.0
                0x0000000000200461        0x3 obj/mifaresim.o
 .data.responses_init.1
                0x0000000000200464      0x132 obj/mifaresim.o
 .data.act_all.2
                0x0000000000200596        0x1 obj/iso14443b.o
 .data.identify.1
                0x0000000000200597        0x1 obj/iso14443b.o
 .data.read_conf.0
                0x0000000000200598        0x4 obj/iso14443b.o
 .data.s_iso14b_fwt
                0x000000000020059c        0x1 obj/iso14443b.o
 *fill*         0x000000000020059d        0x3 
 .data.s_iso14b_timeout
                0x00000000002005a0        0x4 obj/iso14443b.o
 .data.deselect_cmd
                0x00000000002005a4        0x3 obj/mifaredesfire.o
 .data.act_all.3
                0x00000000002005a7        0x1 obj/iclass.o
 .data.iclass_mac_table.0
                0x00000000002005a8       0x40 obj/iclass.o
 .data.identify.2
                0x00000000002005e8        0x4 obj/iclass.o
 .data.read_conf.1
                0x00000000002005ec        0x4 obj/iclass.o
 .data.act_all.3
                0x00000000002005f0        0x1 obj/sam_picopass.o
 .data.identify.2
                0x00000000002005f1        0x4 obj/sam_picopass.o
 .data.legacy_aa1_key.0
                0x00000000002005f5        0x8 obj/sam_picopass.o
 .data.read_conf.1
                0x00000000002005fd        0x4 obj/sam_picopass.o
 .data.poll.1   0x0000000000200601        0xa obj/felica.o
 *fill*         0x000000000020060b        0x1 
 .data.g_dbglevel
                0x000000000020060c        0x4 obj/appmain.o
                0x000000000020060c                g_dbglevel
 .data.dma_16   0x0000000000200610        0x8 obj/BigBuf.o
 .data.dma_8    0x0000000000200618        0x8 obj/BigBuf.o
 .data.toSend   0x0000000000200620        0xc obj/BigBuf.o
 .data.tracing  0x000000000020062c        0x1 obj/BigBuf.o
 .data.bitstream_index_map.0
                0x000000000020062d        0x5 obj/fpgaloader.o
 .data.StrSerialNumber
                0x0000000000200632       0x32 obj/usb_cdc.o
                0x0000000000200632                StrSerialNumber
 .data.btReceiveBank
                0x0000000000200664        0x1 obj/usb_cdc.o
 *fill*         0x0000000000200665        0x3 
 .data.line     0x0000000000200668        0x8 obj/usb_cdc.o
 .data.g_reply_with_crc_on_fpc
                0x0000000000200670        0x1 obj/cmd.o
                0x0000000000200670                g_reply_with_crc_on_fpc
 *(.ramfunc)
 *fill*         0x0000000000200671        0x3 
 .ramfunc       0x0000000000200674     0x1214 obj/iso15693.o
 .ramfunc       0x0000000000201888      0xb80 obj/iso14443a.o
                0x0000000000201888                MillerDecoding
                0x0000000000201cb0                ManchesterDecoding
                0x000000000020202c                SniffIso14443a
 .ramfunc       0x0000000000202408      0x578 obj/iso14443b.o
 .ramfunc       0x0000000000202980      0x1e4 obj/BigBuf.o
                0x0000000000202980                LogTrace
                0x0000000000202ad0                LogTraceBits
 .ramfunc       0x0000000000202b64       0xc4 obj/ticks.o
                0x0000000000202b64                GetCountUS
                0x0000000000202b90                GetTickCount
                0x0000000000202b9c                GetTickCountDelta
                0x0000000000202bb4                GetCountSspClk
                0x0000000000202be0                GetCountSspClkDelta
                0x0000000000202c04                GetTicksDelta
 .ramfunc.__stub
                0x0000000000202c28       0xd8 linker stubs
                0x0000000000202d00                . = ALIGN (0x4)
                0x000000000015b4f0                __data_src_start__ = LOADADDR (.data)
                0x0000000000200000                __data_start__ = ADDR (.data)
                0x0000000000202d48                __data_end__ = (__data_start__ + SIZEOF (.data))
                0x000000000005c110                __os_size__ = ((SIZEOF (.text) + SIZEOF (.data)) + SIZEOF (.rodata))

.igot.plt       0x0000000000202d48        0x0 load address 0x000000000015e238
 .igot.plt      0x0000000000202d48        0x0 obj/fpga_version_info.o

.bss            0x0000000000202d48     0x17a0
                0x0000000000202d48                __bss_start__ = .
 *(.bss)
 *(.bss.*)
 .bss.tmp.0     0x0000000000202d48       0x19 obj/iso15693tools.o
 *fill*         0x0000000000202d61        0x1 
 .bss.FpgaSendQueueDelay
                0x0000000000202d62        0x2 obj/thinfilm.o
 .bss.forwardLink_data
                0x0000000000202d64       0x40 obj/lfops.o
 .bss.forward_ptr
                0x0000000000202da4        0x4 obj/lfops.o
 .bss.fwd_bit_sz
                0x0000000000202da8        0x1 obj/lfops.o
 *fill*         0x0000000000202da9        0x3 
 .bss.fwd_write_ptr
                0x0000000000202dac        0x4 obj/lfops.o
 .bss.prev_keep
                0x0000000000202db0        0x1 obj/lfops.o
 *fill*         0x0000000000202db1        0x3 
 .bss.data      0x0000000000202db4        0xc obj/lfsampling.o
 .bss.samples   0x0000000000202dc0       0x10 obj/lfsampling.o
 .bss.g_debugMode
                0x0000000000202dd0        0x1 obj/lfdemod.o
                0x0000000000202dd0                g_debugMode
 .bss.adc_avg   0x0000000000202dd1        0x1 obj/lfadc.o
 .bss.previous_adc_val
                0x0000000000202dd2        0x1 obj/lfadc.o
 .bss.rising_edge
                0x0000000000202dd3        0x1 obj/lfadc.o
 .bss.card      0x0000000000202dd4        0xc obj/legicrf.o
 .bss.last_frame_end
                0x0000000000202de0        0x4 obj/legicrf.o
 .bss.legic_crc
                0x0000000000202de4       0x20 obj/legicrf.o
 .bss.legic_mem
                0x0000000000202e04        0x4 obj/legicrf.o
 .bss.card      0x0000000000202e08        0xc obj/legicrfsim.o
 .bss.last_frame_end
                0x0000000000202e14        0x4 obj/legicrfsim.o
 .bss.legic_crc
                0x0000000000202e18       0x20 obj/legicrfsim.o
 .bss.legic_mem
                0x0000000000202e38        0x4 obj/legicrfsim.o
 .bss.lfsr      0x0000000000202e3c        0x8 obj/legic_prng.o
 .bss.spi_flash_data
                0x0000000000202e44        0x4 obj/flashmem.o
                0x0000000000202e44                spi_flash_data
 .bss.c         0x0000000000202e48        0x4 obj/i2c.o
 .bss.NrAr      0x0000000000202e4c        0x8 obj/hitag2.o
 .bss.auth_table
                0x0000000000202e54        0x4 obj/hitag2.o
 .bss.auth_table_pos
                0x0000000000202e58        0x4 obj/hitag2.o
 .bss.bAuthenticating
                0x0000000000202e5c        0x1 obj/hitag2.o
 .bss.bCollision
                0x0000000000202e5d        0x1 obj/hitag2.o
 .bss.bCrypto   0x0000000000202e5e        0x1 obj/hitag2.o
 .bss.bPwd      0x0000000000202e5f        0x1 obj/hitag2.o
 .bss.bSelecting
                0x0000000000202e60        0x1 obj/hitag2.o
 .bss.bSuccessful
                0x0000000000202e61        0x1 obj/hitag2.o
 .bss.blocknr   0x0000000000202e62        0x2 obj/hitag2.o
 .bss.byte_value
                0x0000000000202e64        0x4 obj/hitag2.o
 .bss.cipher_state
                0x0000000000202e68        0x8 obj/hitag2.o
 .bss.key       0x0000000000202e70        0x8 obj/hitag2.o
 .bss.key_no    0x0000000000202e78        0x1 obj/hitag2.o
 .bss.logdata_0
                0x0000000000202e79        0x4 obj/hitag2.o
 .bss.logdata_1
                0x0000000000202e7d        0x4 obj/hitag2.o
 .bss.nonce     0x0000000000202e81        0x4 obj/hitag2.o
 .bss.password  0x0000000000202e85        0x4 obj/hitag2.o
 .bss.writedata
                0x0000000000202e89        0x4 obj/hitag2.o
 .bss.writestate
                0x0000000000202e8d        0x1 obj/hitag2.o
 *fill*         0x0000000000202e8e        0x2 
 .bss.block_data_left
                0x0000000000202e90        0x4 obj/hitagS.o
 .bss.enable_page_tearoff
                0x0000000000202e94        0x1 obj/hitagS.o
 .bss.m         0x0000000000202e95        0x1 obj/hitagS.o
 .bss.page_to_be_written
                0x0000000000202e96        0x1 obj/hitagS.o
 .bss.pwdh0     0x0000000000202e97        0x1 obj/hitagS.o
 .bss.pwdl0     0x0000000000202e98        0x1 obj/hitagS.o
 .bss.pwdl1     0x0000000000202e99        0x1 obj/hitagS.o
 *fill*         0x0000000000202e9a        0x2 
 .bss.reader_selected_uid
                0x0000000000202e9c        0x4 obj/hitagS.o
 .bss.rotate_uid
                0x0000000000202ea0        0x4 obj/hitagS.o
 .bss.sof_bits  0x0000000000202ea4        0x4 obj/hitagS.o
 .bss.timestamp_high
                0x0000000000202ea8        0x2 obj/hitagS.o
 .bss.g_Login   0x0000000000202eaa        0x1 obj/em4x50.o
                0x0000000000202eaa                g_Login
 *fill*         0x0000000000202eab        0x1 
 .bss.g_Password
                0x0000000000202eac        0x4 obj/em4x50.o
                0x0000000000202eac                g_Password
 .bss.g_WritePasswordProcess
                0x0000000000202eb0        0x1 obj/em4x50.o
                0x0000000000202eb0                g_WritePasswordProcess
 .bss.tag       0x0000000000202eb1       0x20 obj/em4x70.o
 .bss.RDV40_SPIFFS_MOUNT_STATUS
                0x0000000000202ed1        0x1 obj/spiffs.o
 *fill*         0x0000000000202ed2        0x2 
 .bss.fs        0x0000000000202ed4       0x60 obj/spiffs.o
 *fill*         0x0000000000202f34        0x4 
 .bss.spiffs_cache_buf
                0x0000000000202f38      0x480 obj/spiffs.o
 .bss.spiffs_fds
                0x00000000002033b8       0x60 obj/spiffs.o
 .bss.spiffs_work_buf
                0x0000000000203418      0x200 obj/spiffs.o
 .bss.encode_acc
                0x0000000000203618        0x1 obj/hfops.o
                0x0000000000203618                encode_acc
 .bss.encode_acc_bit_count
                0x0000000000203619        0x1 obj/hfops.o
                0x0000000000203619                encode_acc_bit_count
 *fill*         0x000000000020361a        0x2 
 .bss.encode_indx
                0x000000000020361c        0x4 obj/hfops.o
                0x000000000020361c                encode_indx
 .bss.Demod     0x0000000000203620       0x28 obj/iso14443a.o
 .bss.FpgaSendQueueDelay
                0x0000000000203648        0x2 obj/iso14443a.o
 *fill*         0x000000000020364a        0x2 
 .bss.LastProxToAirDuration
                0x000000000020364c        0x4 obj/iso14443a.o
 .bss.LastTimeProxToAirStart
                0x0000000000203650        0x4 obj/iso14443a.o
 .bss.NextTransferTime
                0x0000000000203654        0x4 obj/iso14443a.o
 .bss.Uart      0x0000000000203658       0x28 obj/iso14443a.o
 .bss.aidFilter.2
                0x0000000000203680       0x1e obj/iso14443a.o
 .bss.aidResponse.1
                0x000000000020369e       0x64 obj/iso14443a.o
 .bss.apduCommand.0
                0x0000000000203702       0x64 obj/iso14443a.o
 .bss.crypto1_auth_state
                0x0000000000203766        0x1 obj/iso14443a.o
 *fill*         0x0000000000203767        0x1 
 .bss.crypto1_state
                0x0000000000203768        0x8 obj/iso14443a.o
                0x0000000000203768                crypto1_state
 .bss.crypto1_uid
                0x0000000000203770        0x4 obj/iso14443a.o
 .bss.hf14aconfig
                0x0000000000203774        0x5 obj/iso14443a.o
 .bss.iso14_pcb_blocknum
                0x0000000000203779        0x1 obj/iso14443a.o
 *fill*         0x000000000020377a        0x2 
 .bss.iso14a_timeout
                0x000000000020377c        0x4 obj/iso14443a.o
 .bss.mf_nr_ar3.4
                0x0000000000203780        0x1 obj/iso14443a.o
 *fill*         0x0000000000203781        0x3 
 .bss.nt_attacked.5
                0x0000000000203784        0x4 obj/iso14443a.o
 .bss.par_low.3
                0x0000000000203788        0x1 obj/iso14443a.o
 .bss.parity_array
                0x0000000000203789       0x20 obj/iso14443a.o
 .bss.rATQA.19  0x00000000002037a9        0x2 obj/iso14443a.o
 .bss.rPACK.8   0x00000000002037ab        0x4 obj/iso14443a.o
 .bss.rSAKc1.14
                0x00000000002037af        0x3 obj/iso14443a.o
 .bss.rSAKc2.12
                0x00000000002037b2        0x3 obj/iso14443a.o
 .bss.rSAKc3.10
                0x00000000002037b5        0x3 obj/iso14443a.o
 .bss.rSIGN.17  0x00000000002037b8       0x22 obj/iso14443a.o
 .bss.rUIDc1.15
                0x00000000002037da        0x5 obj/iso14443a.o
 .bss.rUIDc2.13
                0x00000000002037df        0x5 obj/iso14443a.o
 .bss.rUIDc3.11
                0x00000000002037e4        0x5 obj/iso14443a.o
 .bss.rVERSION.18
                0x00000000002037e9        0xa obj/iso14443a.o
 *fill*         0x00000000002037f3        0x1 
 .bss.sync_cycles.6
                0x00000000002037f4        0x4 obj/iso14443a.o
 .bss.cascade_levels.2
                0x00000000002037f8        0x1 obj/mifarecmd.o
 *fill*         0x00000000002037f9        0x3 
 .bss.cuid.3    0x00000000002037fc        0x4 obj/mifarecmd.o
 .bss.delta_time.8
                0x0000000000203800        0x2 obj/mifarecmd.o
 .bss.dmax.10   0x0000000000203802        0x2 obj/mifarecmd.o
 .bss.dmin.9    0x0000000000203804        0x2 obj/mifarecmd.o
 .bss.dummy_answer
                0x0000000000203806        0x1 obj/mifarecmd.o
 .bss.found.5   0x0000000000203807       0x50 obj/mifarecmd.o
 .bss.foundkeys.4
                0x0000000000203857        0x1 obj/mifarecmd.o
 .bss.k_sector.6
                0x0000000000203858      0x3c0 obj/mifarecmd.o
 .bss.save_iso14a_timeout.0
                0x0000000000203c18        0x4 obj/mifarecmd.o
 .bss.save_iso14a_timeout.1
                0x0000000000203c1c        0x4 obj/mifarecmd.o
 .bss.uid.7     0x0000000000203c20        0x4 obj/mifarecmd.o
 .bss.apdu_lengths_replay
                0x0000000000203c24        0x5 obj/epa.o
 .bss.apdu_replay_general_authenticate_pace_get_nonce
                0x0000000000203c29        0x8 obj/epa.o
 .bss.apdu_replay_general_authenticate_pace_map_nonce
                0x0000000000203c31       0x4b obj/epa.o
 .bss.apdu_replay_general_authenticate_pace_mutual_authenticate
                0x0000000000203c7c       0x4b obj/epa.o
 .bss.apdu_replay_general_authenticate_pace_perform_key_agreement
                0x0000000000203cc7       0x12 obj/epa.o
 .bss.apdu_replay_mse_set_at_pace
                0x0000000000203cd9       0x29 obj/epa.o
 .bss.iso_type  0x0000000000203d02        0x1 obj/epa.o
 .bss.rATQA.27  0x0000000000203d03        0x2 obj/mifaresim.o
 .bss.rSAK.24   0x0000000000203d05        0x3 obj/mifaresim.o
 .bss.rUIDBCC1.16
                0x0000000000203d08        0x5 obj/mifaresim.o
 .bss.rUIDBCC1b1.10
                0x0000000000203d0d        0x1 obj/mifaresim.o
 .bss.rUIDBCC1b2.11
                0x0000000000203d0e        0x2 obj/mifaresim.o
 .bss.rUIDBCC1b3.12
                0x0000000000203d10        0x3 obj/mifaresim.o
 .bss.rUIDBCC1b4.13
                0x0000000000203d13        0x4 obj/mifaresim.o
 .bss.rUIDBCC2.15
                0x0000000000203d17        0x5 obj/mifaresim.o
 .bss.rUIDBCC2b1.6
                0x0000000000203d1c        0x1 obj/mifaresim.o
 .bss.rUIDBCC2b2.7
                0x0000000000203d1d        0x2 obj/mifaresim.o
 .bss.rUIDBCC2b3.8
                0x0000000000203d1f        0x3 obj/mifaresim.o
 .bss.rUIDBCC2b4.9
                0x0000000000203d22        0x4 obj/mifaresim.o
 .bss.rUIDBCC3.14
                0x0000000000203d26        0x5 obj/mifaresim.o
 .bss.rUIDBCC3b1.2
                0x0000000000203d2b        0x1 obj/mifaresim.o
 .bss.rUIDBCC3b2.3
                0x0000000000203d2c        0x2 obj/mifaresim.o
 .bss.rUIDBCC3b3.4
                0x0000000000203d2e        0x3 obj/mifaresim.o
 .bss.rUIDBCC3b4.5
                0x0000000000203d31        0x4 obj/mifaresim.o
 *fill*         0x0000000000203d35        0x3 
 .bss.Demod     0x0000000000203d38       0x20 obj/iso14443b.o
 .bss.Uart      0x0000000000203d58       0x18 obj/iso14443b.o
 .bss.s_field_on
                0x0000000000203d70        0x1 obj/iso14443b.o
 .bss.s_iso14b_pcb_blocknum
                0x0000000000203d71        0x1 obj/iso14443b.o
 *fill*         0x0000000000203d72        0x2 
 .bss.ctx       0x0000000000203d74       0x80 obj/desfire_crypto.o
 .bss.ctx3      0x0000000000203df4      0x180 obj/desfire_crypto.o
 .bss.pcb_blocknum
                0x0000000000203f74        0x1 obj/mifaredesfire.o
 .bss.skey      0x0000000000203f75       0x4a obj/mifaredesfire.o
 *fill*         0x0000000000203fbf        0x1 
 .bss.ctx_enc   0x0000000000203fc0       0x80 obj/optimized_ikeys.o
 .bss.ctx_dec   0x0000000000204040       0x80 obj/optimized_elite.o
 .bss.ctx_enc   0x00000000002040c0       0x80 obj/optimized_elite.o
 .bss.crc_table
                0x0000000000204140      0x200 obj/crc16.o
 .bss.crc_table_init
                0x0000000000204340        0x1 obj/crc16.o
 .bss.current_crc_type
                0x0000000000204341        0x1 obj/crc16.o
 *fill*         0x0000000000204342        0x2 
 .bss.FelicaFrame
                0x0000000000204344       0x18 obj/felica.o
 .bss.felica_lasttime_prox2air_start
                0x000000000020435c        0x4 obj/felica.o
 .bss.felica_nexttransfertime
                0x0000000000204360        0x4 obj/felica.o
 .bss.felica_timeout
                0x0000000000204364        0x4 obj/felica.o
 .bss.frameSpace
                0x0000000000204368      0x108 obj/felica.o
 .bss.timeslot.0
                0x0000000000204470        0x1 obj/felica.o
 .bss.allow_send_wtx
                0x0000000000204471        0x1 obj/appmain.o
 *fill*         0x0000000000204472        0x2 
 .bss.button_status
                0x0000000000204474        0x4 obj/appmain.o
 .bss.g_hf_field_active
                0x0000000000204478        0x1 obj/appmain.o
                0x0000000000204478                g_hf_field_active
 *fill*         0x0000000000204479        0x1 
 .bss.g_tearoff_delay_us
                0x000000000020447a        0x2 obj/appmain.o
                0x000000000020447a                g_tearoff_delay_us
 .bss.g_tearoff_enabled
                0x000000000020447c        0x1 obj/appmain.o
                0x000000000020447c                g_tearoff_enabled
 .bss.g_trigger
                0x000000000020447d        0x1 obj/appmain.o
                0x000000000020447d                g_trigger
 *fill*         0x000000000020447e        0x2 
 .bss.emulator_memory
                0x0000000000204480        0x4 obj/BigBuf.o
 .bss.s_bigbuf_hi
                0x0000000000204484        0x4 obj/BigBuf.o
 .bss.s_bigbuf_size
                0x0000000000204488        0x4 obj/BigBuf.o
 .bss.trace_len
                0x000000000020448c        0x4 obj/BigBuf.o
 .bss.downloaded_bitstream
                0x0000000000204490        0x4 obj/fpgaloader.o
 .bss.fpga_image_ptr
                0x0000000000204494        0x4 obj/fpgaloader.o
 .bss.uncompressed_bytes_cnt
                0x0000000000204498        0x4 obj/fpgaloader.o
 .bss.btConfiguration
                0x000000000020449c        0x1 obj/usb_cdc.o
 .bss.configured.0
                0x000000000020449d        0x1 obj/usb_cdc.o
 .bss.isAsyncRequestFinished
                0x000000000020449e        0x1 obj/usb_cdc.o
 .bss.usb_read_ng_buffer
                0x000000000020449f       0x40 obj/usb_cdc.o
 *fill*         0x00000000002044df        0x1 
 .bss.usb_read_ng_buflen
                0x00000000002044e0        0x4 obj/usb_cdc.o
 .bss.usb_read_ng_bufoffset
                0x00000000002044e4        0x1 obj/usb_cdc.o
 .bss.g_reply_via_fpc
                0x00000000002044e5        0x1 obj/cmd.o
                0x00000000002044e5                g_reply_via_fpc
 .bss.g_reply_via_usb
                0x00000000002044e6        0x1 obj/cmd.o
                0x00000000002044e6                g_reply_via_usb
 .bss.g_reply_with_crc_on_usb
                0x00000000002044e7        0x1 obj/cmd.o
                0x00000000002044e7                g_reply_with_crc_on_usb
                0x00000000002044e8                . = ALIGN (0x4)
                0x00000000002044e8                __bss_end__ = .

.commonarea     0x000000000020ffe0        0xf
 *(.commonarea)
 .commonarea    0x000000000020ffe0        0xf obj/appmain.o
                0x000000000020ffe0                g_common_area
LOAD obj/version_pm3.o
LOAD obj/fpga_version_info.o
LOAD obj/fpga_all.o
LOAD obj/start.o
LOAD obj/iso15693.o
LOAD obj/iso15693tools.o
LOAD obj/thinfilm.o
LOAD obj/lfops.o
LOAD obj/lfsampling.o
LOAD obj/pcf7931.o
LOAD obj/lfdemod.o
LOAD obj/lfadc.o
LOAD obj/lz4.o
LOAD obj/legicrf.o
LOAD obj/legicrfsim.o
LOAD obj/legic_prng.o
LOAD obj/flashmem.o
LOAD obj/i2c.o
LOAD obj/hitag2_crypto.o
LOAD obj/hitag2.o
LOAD obj/hitagS.o
LOAD obj/hitag2_crack.o
LOAD obj/em4x50.o
LOAD obj/bruteforce.o
LOAD obj/em4x70.o
LOAD obj/spiffs.o
LOAD obj/spiffs_cache.o
LOAD obj/spiffs_check.o
LOAD obj/spiffs_gc.o
LOAD obj/spiffs_nucleus.o
LOAD obj/spiffs_hydrogen.o
LOAD obj/hfops.o
LOAD obj/iso14443a.o
LOAD obj/mifareutil.o
LOAD obj/mifarecmd.o
LOAD obj/epa.o
LOAD obj/mifaresim.o
LOAD obj/sam_mfc.o
LOAD obj/sam_seos.o
LOAD obj/iso14443b.o
LOAD obj/crypto1.o
LOAD obj/des.o
LOAD obj/desfire_crypto.o
LOAD obj/mifaredesfire.o
LOAD obj/aes.o
LOAD obj/platform_util.o
LOAD obj/iclass.o
LOAD obj/optimized_cipherutils.o
LOAD obj/optimized_ikeys.o
LOAD obj/optimized_elite.o
LOAD obj/optimized_cipher.o
LOAD obj/sam_picopass.o
LOAD obj/crc.o
LOAD obj/crc16.o
LOAD obj/crc32.o
LOAD obj/felica.o
LOAD obj/lf_samyrun.o
LOAD obj/lfzx.o
LOAD obj/appmain.o
LOAD obj/printf.o
LOAD obj/dbprint.o
LOAD obj/commonutil.o
LOAD obj/util.o
LOAD obj/string.o
LOAD obj/BigBuf.o
LOAD obj/ticks.o
LOAD obj/clocks.o
LOAD obj/hfsnoop.o
LOAD obj/generator.o
LOAD obj/fpgaloader.o
LOAD obj/usb_cdc.o
LOAD obj/cmd.o
LOAD /usr/local/Cellar/arm-none-eabi-gcc/10.3-2021.10/gcc/bin/../lib/gcc/arm-none-eabi/10.3.1/libgcc.a
OUTPUT(obj/fullimage.stage1.elf elf32-littlearm)
LOAD linker stubs

.comment        0x0000000000000000       0x49
 .comment       0x0000000000000000       0x49 obj/fpga_version_info.o
                                         0x4a (size before relaxing)
 .comment       0x0000000000000049       0x4a obj/start.o
 .comment       0x0000000000000049       0x4a obj/iso15693.o
 .comment       0x0000000000000049       0x4a obj/iso15693tools.o
 .comment       0x0000000000000049       0x4a obj/thinfilm.o
 .comment       0x0000000000000049       0x4a obj/lfops.o
 .comment       0x0000000000000049       0x4a obj/lfsampling.o
 .comment       0x0000000000000049       0x4a obj/pcf7931.o
 .comment       0x0000000000000049       0x4a obj/lfdemod.o
 .comment       0x0000000000000049       0x4a obj/lfadc.o
 .comment       0x0000000000000049       0x4a obj/lz4.o
 .comment       0x0000000000000049       0x4a obj/legicrf.o
 .comment       0x0000000000000049       0x4a obj/legicrfsim.o
 .comment       0x0000000000000049       0x4a obj/legic_prng.o
 .comment       0x0000000000000049       0x4a obj/flashmem.o
 .comment       0x0000000000000049       0x4a obj/i2c.o
 .comment       0x0000000000000049       0x4a obj/hitag2_crypto.o
 .comment       0x0000000000000049       0x4a obj/hitag2.o
 .comment       0x0000000000000049       0x4a obj/hitagS.o
 .comment       0x0000000000000049       0x4a obj/hitag2_crack.o
 .comment       0x0000000000000049       0x4a obj/em4x50.o
 .comment       0x0000000000000049       0x4a obj/bruteforce.o
 .comment       0x0000000000000049       0x4a obj/em4x70.o
 .comment       0x0000000000000049       0x4a obj/spiffs.o
 .comment       0x0000000000000049       0x4a obj/spiffs_cache.o
 .comment       0x0000000000000049       0x4a obj/spiffs_check.o
 .comment       0x0000000000000049       0x4a obj/spiffs_gc.o
 .comment       0x0000000000000049       0x4a obj/spiffs_nucleus.o
 .comment       0x0000000000000049       0x4a obj/spiffs_hydrogen.o
 .comment       0x0000000000000049       0x4a obj/hfops.o
 .comment       0x0000000000000049       0x4a obj/iso14443a.o
 .comment       0x0000000000000049       0x4a obj/mifareutil.o
 .comment       0x0000000000000049       0x4a obj/mifarecmd.o
 .comment       0x0000000000000049       0x4a obj/epa.o
 .comment       0x0000000000000049       0x4a obj/mifaresim.o
 .comment       0x0000000000000049       0x4a obj/iso14443b.o
 .comment       0x0000000000000049       0x4a obj/crypto1.o
 .comment       0x0000000000000049       0x4a obj/des.o
 .comment       0x0000000000000049       0x4a obj/desfire_crypto.o
 .comment       0x0000000000000049       0x4a obj/mifaredesfire.o
 .comment       0x0000000000000049       0x4a obj/aes.o
 .comment       0x0000000000000049       0x4a obj/platform_util.o
 .comment       0x0000000000000049       0x4a obj/iclass.o
 .comment       0x0000000000000049       0x4a obj/optimized_cipherutils.o
 .comment       0x0000000000000049       0x4a obj/optimized_ikeys.o
 .comment       0x0000000000000049       0x4a obj/optimized_elite.o
 .comment       0x0000000000000049       0x4a obj/optimized_cipher.o
 .comment       0x0000000000000049       0x4a obj/sam_picopass.o
 .comment       0x0000000000000049       0x4a obj/crc.o
 .comment       0x0000000000000049       0x4a obj/crc16.o
 .comment       0x0000000000000049       0x4a obj/felica.o
 .comment       0x0000000000000049       0x4a obj/lf_samyrun.o
 .comment       0x0000000000000049       0x4a obj/lfzx.o
 .comment       0x0000000000000049       0x4a obj/appmain.o
 .comment       0x0000000000000049       0x4a obj/printf.o
 .comment       0x0000000000000049       0x4a obj/dbprint.o
 .comment       0x0000000000000049       0x4a obj/commonutil.o
 .comment       0x0000000000000049       0x4a obj/util.o
 .comment       0x0000000000000049       0x4a obj/string.o
 .comment       0x0000000000000049       0x4a obj/BigBuf.o
 .comment       0x0000000000000049       0x4a obj/ticks.o
 .comment       0x0000000000000049       0x4a obj/clocks.o
 .comment       0x0000000000000049       0x4a obj/hfsnoop.o
 .comment       0x0000000000000049       0x4a obj/generator.o
 .comment       0x0000000000000049       0x4a obj/fpgaloader.o
 .comment       0x0000000000000049       0x4a obj/usb_cdc.o
 .comment       0x0000000000000049       0x4a obj/cmd.o

.ARM.attributes
                0x0000000000000000       0x2a
 .ARM.attributes
                0x0000000000000000       0x2a obj/fpga_version_info.o
 .ARM.attributes
                0x000000000000002a       0x2a obj/start.o
 .ARM.attributes
                0x0000000000000054       0x2a obj/iso15693.o
 .ARM.attributes
                0x000000000000007e       0x2a obj/iso15693tools.o
 .ARM.attributes
                0x00000000000000a8       0x2a obj/thinfilm.o
 .ARM.attributes
                0x00000000000000d2       0x2a obj/lfops.o
 .ARM.attributes
                0x00000000000000fc       0x2a obj/lfsampling.o
 .ARM.attributes
                0x0000000000000126       0x2a obj/pcf7931.o
 .ARM.attributes
                0x0000000000000150       0x2a obj/lfdemod.o
 .ARM.attributes
                0x000000000000017a       0x2a obj/lfadc.o
 .ARM.attributes
                0x00000000000001a4       0x2a obj/lz4.o
 .ARM.attributes
                0x00000000000001ce       0x2a obj/legicrf.o
 .ARM.attributes
                0x00000000000001f8       0x2a obj/legicrfsim.o
 .ARM.attributes
                0x0000000000000222       0x2a obj/legic_prng.o
 .ARM.attributes
                0x000000000000024c       0x2a obj/flashmem.o
 .ARM.attributes
                0x0000000000000276       0x2a obj/i2c.o
 .ARM.attributes
                0x00000000000002a0       0x2a obj/hitag2_crypto.o
 .ARM.attributes
                0x00000000000002ca       0x2a obj/hitag2.o
 .ARM.attributes
                0x00000000000002f4       0x2a obj/hitagS.o
 .ARM.attributes
                0x000000000000031e       0x2a obj/hitag2_crack.o
 .ARM.attributes
                0x0000000000000348       0x2a obj/em4x50.o
 .ARM.attributes
                0x0000000000000372       0x2a obj/bruteforce.o
 .ARM.attributes
                0x000000000000039c       0x2a obj/em4x70.o
 .ARM.attributes
                0x00000000000003c6       0x2a obj/spiffs.o
 .ARM.attributes
                0x00000000000003f0       0x2a obj/spiffs_cache.o
 .ARM.attributes
                0x000000000000041a       0x2a obj/spiffs_check.o
 .ARM.attributes
                0x0000000000000444       0x2a obj/spiffs_gc.o
 .ARM.attributes
                0x000000000000046e       0x2a obj/spiffs_nucleus.o
 .ARM.attributes
                0x0000000000000498       0x2a obj/spiffs_hydrogen.o
 .ARM.attributes
                0x00000000000004c2       0x2a obj/hfops.o
 .ARM.attributes
                0x00000000000004ec       0x2a obj/iso14443a.o
 .ARM.attributes
                0x0000000000000516       0x2a obj/mifareutil.o
 .ARM.attributes
                0x0000000000000540       0x2a obj/mifarecmd.o
 .ARM.attributes
                0x000000000000056a       0x2a obj/epa.o
 .ARM.attributes
                0x0000000000000594       0x2a obj/mifaresim.o
 .ARM.attributes
                0x00000000000005be       0x2a obj/iso14443b.o
 .ARM.attributes
                0x00000000000005e8       0x2a obj/crypto1.o
 .ARM.attributes
                0x0000000000000612       0x2a obj/des.o
 .ARM.attributes
                0x000000000000063c       0x2a obj/desfire_crypto.o
 .ARM.attributes
                0x0000000000000666       0x2a obj/mifaredesfire.o
 .ARM.attributes
                0x0000000000000690       0x2a obj/aes.o
 .ARM.attributes
                0x00000000000006ba       0x2a obj/platform_util.o
 .ARM.attributes
                0x00000000000006e4       0x2a obj/iclass.o
 .ARM.attributes
                0x000000000000070e       0x2a obj/optimized_cipherutils.o
 .ARM.attributes
                0x0000000000000738       0x2a obj/optimized_ikeys.o
 .ARM.attributes
                0x0000000000000762       0x2a obj/optimized_elite.o
 .ARM.attributes
                0x000000000000078c       0x2a obj/optimized_cipher.o
 .ARM.attributes
                0x00000000000007b6       0x2a obj/sam_picopass.o
 .ARM.attributes
                0x00000000000007e0       0x2a obj/crc.o
 .ARM.attributes
                0x000000000000080a       0x2a obj/crc16.o
 .ARM.attributes
                0x0000000000000834       0x2a obj/felica.o
 .ARM.attributes
                0x000000000000085e       0x2a obj/lf_samyrun.o
 .ARM.attributes
                0x0000000000000888       0x2a obj/lfzx.o
 .ARM.attributes
                0x00000000000008b2       0x2a obj/appmain.o
 .ARM.attributes
                0x00000000000008dc       0x2a obj/printf.o
 .ARM.attributes
                0x0000000000000906       0x2a obj/dbprint.o
 .ARM.attributes
                0x0000000000000930       0x2a obj/commonutil.o
 .ARM.attributes
                0x000000000000095a       0x2a obj/util.o
 .ARM.attributes
                0x0000000000000984       0x2a obj/string.o
 .ARM.attributes
                0x00000000000009ae       0x2a obj/BigBuf.o
 .ARM.attributes
                0x00000000000009d8       0x2a obj/ticks.o
 .ARM.attributes
                0x0000000000000a02       0x2a obj/clocks.o
 .ARM.attributes
                0x0000000000000a2c       0x2a obj/hfsnoop.o
 .ARM.attributes
                0x0000000000000a56       0x2a obj/generator.o
 .ARM.attributes
                0x0000000000000a80       0x2a obj/fpgaloader.o
 .ARM.attributes
                0x0000000000000aaa       0x2a obj/usb_cdc.o
 .ARM.attributes
                0x0000000000000ad4       0x2a obj/cmd.o
 .ARM.attributes
                0x0000000000000afe       0x1c /usr/local/Cellar/arm-none-eabi-gcc/10.3-2021.10/gcc/bin/../lib/gcc/arm-none-eabi/10.3.1/libgcc.a(_thumb1_case_sqi.o)
 .ARM.attributes
                0x0000000000000b1a       0x1c /usr/local/Cellar/arm-none-eabi-gcc/10.3-2021.10/gcc/bin/../lib/gcc/arm-none-eabi/10.3.1/libgcc.a(_thumb1_case_uqi.o)
 .ARM.attributes
                0x0000000000000b36       0x1c /usr/local/Cellar/arm-none-eabi-gcc/10.3-2021.10/gcc/bin/../lib/gcc/arm-none-eabi/10.3.1/libgcc.a(_thumb1_case_shi.o)
 .ARM.attributes
                0x0000000000000b52       0x1c /usr/local/Cellar/arm-none-eabi-gcc/10.3-2021.10/gcc/bin/../lib/gcc/arm-none-eabi/10.3.1/libgcc.a(_thumb1_case_uhi.o)
 .ARM.attributes
                0x0000000000000b6e       0x1c /usr/local/Cellar/arm-none-eabi-gcc/10.3-2021.10/gcc/bin/../lib/gcc/arm-none-eabi/10.3.1/libgcc.a(_thumb1_case_si.o)
 .ARM.attributes
                0x0000000000000b8a       0x1c /usr/local/Cellar/arm-none-eabi-gcc/10.3-2021.10/gcc/bin/../lib/gcc/arm-none-eabi/10.3.1/libgcc.a(_udivsi3.o)
 .ARM.attributes
                0x0000000000000ba6       0x1c /usr/local/Cellar/arm-none-eabi-gcc/10.3-2021.10/gcc/bin/../lib/gcc/arm-none-eabi/10.3.1/libgcc.a(_divsi3.o)
 .ARM.attributes
                0x0000000000000bc2       0x1c /usr/local/Cellar/arm-none-eabi-gcc/10.3-2021.10/gcc/bin/../lib/gcc/arm-none-eabi/10.3.1/libgcc.a(_dvmd_tls.o)
 .ARM.attributes
                0x0000000000000bde       0x1c /usr/local/Cellar/arm-none-eabi-gcc/10.3-2021.10/gcc/bin/../lib/gcc/arm-none-eabi/10.3.1/libgcc.a(_lshrdi3.o)
 .ARM.attributes
                0x0000000000000bfa       0x1c /usr/local/Cellar/arm-none-eabi-gcc/10.3-2021.10/gcc/bin/../lib/gcc/arm-none-eabi/10.3.1/libgcc.a(_ashldi3.o)
 .ARM.attributes
                0x0000000000000c16       0x1c /usr/local/Cellar/arm-none-eabi-gcc/10.3-2021.10/gcc/bin/../lib/gcc/arm-none-eabi/10.3.1/libgcc.a(_arm_addsubdf3.o)
 .ARM.attributes
                0x0000000000000c32       0x1c /usr/local/Cellar/arm-none-eabi-gcc/10.3-2021.10/gcc/bin/../lib/gcc/arm-none-eabi/10.3.1/libgcc.a(_arm_muldivdf3.o)
 .ARM.attributes
                0x0000000000000c4e       0x1c /usr/local/Cellar/arm-none-eabi-gcc/10.3-2021.10/gcc/bin/../lib/gcc/arm-none-eabi/10.3.1/libgcc.a(_arm_fixunsdfsi.o)
 .ARM.attributes
                0x0000000000000c6a       0x1c /usr/local/Cellar/arm-none-eabi-gcc/10.3-2021.10/gcc/bin/../lib/gcc/arm-none-eabi/10.3.1/libgcc.a(_aeabi_uldivmod.o)
 .ARM.attributes
                0x0000000000000c86       0x2a /usr/local/Cellar/arm-none-eabi-gcc/10.3-2021.10/gcc/bin/../lib/gcc/arm-none-eabi/10.3.1/libgcc.a(_muldi3.o)
 .ARM.attributes
                0x0000000000000cb0       0x2a /usr/local/Cellar/arm-none-eabi-gcc/10.3-2021.10/gcc/bin/../lib/gcc/arm-none-eabi/10.3.1/libgcc.a(_paritysi2.o)
 .ARM.attributes
                0x0000000000000cda       0x2a /usr/local/Cellar/arm-none-eabi-gcc/10.3-2021.10/gcc/bin/../lib/gcc/arm-none-eabi/10.3.1/libgcc.a(_bswapsi2.o)
 .ARM.attributes
                0x0000000000000d04       0x2a /usr/local/Cellar/arm-none-eabi-gcc/10.3-2021.10/gcc/bin/../lib/gcc/arm-none-eabi/10.3.1/libgcc.a(_udivmoddi4.o)
 .ARM.attributes
                0x0000000000000d2e       0x1c /usr/local/Cellar/arm-none-eabi-gcc/10.3-2021.10/gcc/bin/../lib/gcc/arm-none-eabi/10.3.1/libgcc.a(_clzdi2.o)
 .ARM.attributes
                0x0000000000000d4a       0x1c /usr/local/Cellar/arm-none-eabi-gcc/10.3-2021.10/gcc/bin/../lib/gcc/arm-none-eabi/10.3.1/libgcc.a(_clzsi2.o)

.debug_frame    0x0000000000000000      0x238
 .debug_frame   0x0000000000000000       0x20 /usr/local/Cellar/arm-none-eabi-gcc/10.3-2021.10/gcc/bin/../lib/gcc/arm-none-eabi/10.3.1/libgcc.a(_udivsi3.o)
 .debug_frame   0x0000000000000020       0x20 /usr/local/Cellar/arm-none-eabi-gcc/10.3-2021.10/gcc/bin/../lib/gcc/arm-none-eabi/10.3.1/libgcc.a(_divsi3.o)
 .debug_frame   0x0000000000000040       0xac /usr/local/Cellar/arm-none-eabi-gcc/10.3-2021.10/gcc/bin/../lib/gcc/arm-none-eabi/10.3.1/libgcc.a(_arm_addsubdf3.o)
 .debug_frame   0x00000000000000ec       0x50 /usr/local/Cellar/arm-none-eabi-gcc/10.3-2021.10/gcc/bin/../lib/gcc/arm-none-eabi/10.3.1/libgcc.a(_arm_muldivdf3.o)
 .debug_frame   0x000000000000013c       0x24 /usr/local/Cellar/arm-none-eabi-gcc/10.3-2021.10/gcc/bin/../lib/gcc/arm-none-eabi/10.3.1/libgcc.a(_arm_fixunsdfsi.o)
 .debug_frame   0x0000000000000160       0x2c /usr/local/Cellar/arm-none-eabi-gcc/10.3-2021.10/gcc/bin/../lib/gcc/arm-none-eabi/10.3.1/libgcc.a(_aeabi_uldivmod.o)
 .debug_frame   0x000000000000018c       0x2c /usr/local/Cellar/arm-none-eabi-gcc/10.3-2021.10/gcc/bin/../lib/gcc/arm-none-eabi/10.3.1/libgcc.a(_muldi3.o)
 .debug_frame   0x00000000000001b8       0x20 /usr/local/Cellar/arm-none-eabi-gcc/10.3-2021.10/gcc/bin/../lib/gcc/arm-none-eabi/10.3.1/libgcc.a(_paritysi2.o)
 .debug_frame   0x00000000000001d8       0x20 /usr/local/Cellar/arm-none-eabi-gcc/10.3-2021.10/gcc/bin/../lib/gcc/arm-none-eabi/10.3.1/libgcc.a(_bswapsi2.o)
 .debug_frame   0x00000000000001f8       0x40 /usr/local/Cellar/arm-none-eabi-gcc/10.3-2021.10/gcc/bin/../lib/gcc/arm-none-eabi/10.3.1/libgcc.a(_udivmoddi4.o)
